Component: ARM Compiler 5.05 update 1 (build 106) Tool: armlink [4d0efa]

==============================================================================

Section Cross References

    main.o(i.main) refers to systick.o(i.SysTick_Init) for SysTick_Init
    main.o(i.main) refers to misc.o(i.NVIC_PriorityGroupConfig) for NVIC_PriorityGroupConfig
    main.o(i.main) refers to led.o(i.LED_Init) for LED_Init
    main.o(i.main) refers to usart.o(i.USART1_Init) for USART1_Init
    main.o(i.main) refers to esp8266_drive.o(i.ESP8266_Init) for ESP8266_Init
    main.o(i.main) refers to esp8266_public.o(i.ESP8266_STA_LinkAP) for ESP8266_STA_LinkAP
    main.o(i.main) refers to tftlcd.o(i.TFTLCD_Init) for TFTLCD_Init
    main.o(i.main) refers to key.o(i.KEY_Init) for KEY_Init
    main.o(i.main) refers to flash.o(i.EN25QXX_Init) for EN25QXX_Init
    main.o(i.main) refers to malloc.o(i.my_mem_init) for my_mem_init
    main.o(i.main) refers to tftlcd.o(i.LCD_ShowString) for LCD_ShowString
    main.o(i.main) refers to systick.o(i.delay_ms) for delay_ms
    main.o(i.main) refers to tftlcd.o(i.LCD_Fill) for LCD_Fill
    main.o(i.main) refers to ov7670.o(i.OV7670_Init) for OV7670_Init
    main.o(i.main) refers to fatfs_app.o(i.FATFS_Init) for FATFS_Init
    main.o(i.main) refers to ff.o(i.f_mount) for f_mount
    main.o(i.main) refers to ff.o(i.f_mkdir) for f_mkdir
    main.o(i.main) refers to malloc.o(i.mymalloc) for mymalloc
    main.o(i.main) refers to ov7670.o(i.OV7670_Light_Mode) for OV7670_Light_Mode
    main.o(i.main) refers to ov7670.o(i.OV7670_Color_Saturation) for OV7670_Color_Saturation
    main.o(i.main) refers to ov7670.o(i.OV7670_Brightness) for OV7670_Brightness
    main.o(i.main) refers to ov7670.o(i.OV7670_Contrast) for OV7670_Contrast
    main.o(i.main) refers to ov7670.o(i.OV7670_Special_Effects) for OV7670_Special_Effects
    main.o(i.main) refers to time.o(i.TIM4_Init) for TIM4_Init
    main.o(i.main) refers to exti.o(i.EXTI7_Init) for EXTI7_Init
    main.o(i.main) refers to ov7670.o(i.OV7670_Window_Set) for OV7670_Window_Set
    main.o(i.main) refers to tftlcd.o(i.LCD_Clear) for LCD_Clear
    main.o(i.main) refers to discern.o(i.CameraDiscern) for CameraDiscern
    main.o(i.main) refers to key.o(i.KEY_Scan) for KEY_Scan
    main.o(i.main) refers to bmp.o(i.camera_new_pathname) for camera_new_pathname
    main.o(i.main) refers to bmp.o(i.bmp_encode) for bmp_encode
    main.o(i.main) refers to esp8266_public.o(i.ESP8266_ConnectToServer) for ESP8266_ConnectToServer
    main.o(i.main) refers to esp8266_public.o(i.PostToWeb) for PostToWeb
    main.o(i.main) refers to tftlcd.o(.data) for tftlcd_data
    main.o(i.main) refers to fatfs_app.o(.bss) for fs
    startup_stm32f10x_hd.o(RESET) refers to startup_stm32f10x_hd.o(STACK) for __initial_sp
    startup_stm32f10x_hd.o(RESET) refers to startup_stm32f10x_hd.o(.text) for Reset_Handler
    startup_stm32f10x_hd.o(RESET) refers to stm32f10x_it.o(i.NMI_Handler) for NMI_Handler
    startup_stm32f10x_hd.o(RESET) refers to stm32f10x_it.o(i.HardFault_Handler) for HardFault_Handler
    startup_stm32f10x_hd.o(RESET) refers to stm32f10x_it.o(i.MemManage_Handler) for MemManage_Handler
    startup_stm32f10x_hd.o(RESET) refers to stm32f10x_it.o(i.BusFault_Handler) for BusFault_Handler
    startup_stm32f10x_hd.o(RESET) refers to stm32f10x_it.o(i.UsageFault_Handler) for UsageFault_Handler
    startup_stm32f10x_hd.o(RESET) refers to stm32f10x_it.o(i.SVC_Handler) for SVC_Handler
    startup_stm32f10x_hd.o(RESET) refers to stm32f10x_it.o(i.DebugMon_Handler) for DebugMon_Handler
    startup_stm32f10x_hd.o(RESET) refers to stm32f10x_it.o(i.PendSV_Handler) for PendSV_Handler
    startup_stm32f10x_hd.o(RESET) refers to stm32f10x_it.o(i.SysTick_Handler) for SysTick_Handler
    startup_stm32f10x_hd.o(RESET) refers to exti.o(i.EXTI9_5_IRQHandler) for EXTI9_5_IRQHandler
    startup_stm32f10x_hd.o(RESET) refers to time.o(i.TIM4_IRQHandler) for TIM4_IRQHandler
    startup_stm32f10x_hd.o(RESET) refers to usart.o(i.USART1_IRQHandler) for USART1_IRQHandler
    startup_stm32f10x_hd.o(RESET) refers to esp8266_drive.o(i.USART2_IRQHandler) for USART2_IRQHandler
    startup_stm32f10x_hd.o(.text) refers to system_stm32f10x.o(i.SystemInit) for SystemInit
    startup_stm32f10x_hd.o(.text) refers to entry.o(.ARM.Collect$$$$00000000) for __main
    stm32f10x_gpio.o(i.GPIO_AFIODeInit) refers to stm32f10x_rcc.o(i.RCC_APB2PeriphResetCmd) for RCC_APB2PeriphResetCmd
    stm32f10x_gpio.o(i.GPIO_DeInit) refers to stm32f10x_rcc.o(i.RCC_APB2PeriphResetCmd) for RCC_APB2PeriphResetCmd
    stm32f10x_rcc.o(i.RCC_GetClocksFreq) refers to stm32f10x_rcc.o(.data) for APBAHBPrescTable
    stm32f10x_rcc.o(i.RCC_WaitForHSEStartUp) refers to stm32f10x_rcc.o(i.RCC_GetFlagStatus) for RCC_GetFlagStatus
    stm32f10x_tim.o(i.TIM_DeInit) refers to stm32f10x_rcc.o(i.RCC_APB2PeriphResetCmd) for RCC_APB2PeriphResetCmd
    stm32f10x_tim.o(i.TIM_DeInit) refers to stm32f10x_rcc.o(i.RCC_APB1PeriphResetCmd) for RCC_APB1PeriphResetCmd
    stm32f10x_tim.o(i.TIM_ETRClockMode1Config) refers to stm32f10x_tim.o(i.TIM_ETRConfig) for TIM_ETRConfig
    stm32f10x_tim.o(i.TIM_ETRClockMode2Config) refers to stm32f10x_tim.o(i.TIM_ETRConfig) for TIM_ETRConfig
    stm32f10x_tim.o(i.TIM_ICInit) refers to stm32f10x_tim.o(i.TI1_Config) for TI1_Config
    stm32f10x_tim.o(i.TIM_ICInit) refers to stm32f10x_tim.o(i.TIM_SetIC1Prescaler) for TIM_SetIC1Prescaler
    stm32f10x_tim.o(i.TIM_ICInit) refers to stm32f10x_tim.o(i.TI2_Config) for TI2_Config
    stm32f10x_tim.o(i.TIM_ICInit) refers to stm32f10x_tim.o(i.TIM_SetIC2Prescaler) for TIM_SetIC2Prescaler
    stm32f10x_tim.o(i.TIM_ICInit) refers to stm32f10x_tim.o(i.TI3_Config) for TI3_Config
    stm32f10x_tim.o(i.TIM_ICInit) refers to stm32f10x_tim.o(i.TIM_SetIC3Prescaler) for TIM_SetIC3Prescaler
    stm32f10x_tim.o(i.TIM_ICInit) refers to stm32f10x_tim.o(i.TI4_Config) for TI4_Config
    stm32f10x_tim.o(i.TIM_ICInit) refers to stm32f10x_tim.o(i.TIM_SetIC4Prescaler) for TIM_SetIC4Prescaler
    stm32f10x_tim.o(i.TIM_ITRxExternalClockConfig) refers to stm32f10x_tim.o(i.TIM_SelectInputTrigger) for TIM_SelectInputTrigger
    stm32f10x_tim.o(i.TIM_PWMIConfig) refers to stm32f10x_tim.o(i.TI1_Config) for TI1_Config
    stm32f10x_tim.o(i.TIM_PWMIConfig) refers to stm32f10x_tim.o(i.TIM_SetIC1Prescaler) for TIM_SetIC1Prescaler
    stm32f10x_tim.o(i.TIM_PWMIConfig) refers to stm32f10x_tim.o(i.TI2_Config) for TI2_Config
    stm32f10x_tim.o(i.TIM_PWMIConfig) refers to stm32f10x_tim.o(i.TIM_SetIC2Prescaler) for TIM_SetIC2Prescaler
    stm32f10x_tim.o(i.TIM_TIxExternalClockConfig) refers to stm32f10x_tim.o(i.TI2_Config) for TI2_Config
    stm32f10x_tim.o(i.TIM_TIxExternalClockConfig) refers to stm32f10x_tim.o(i.TI1_Config) for TI1_Config
    stm32f10x_tim.o(i.TIM_TIxExternalClockConfig) refers to stm32f10x_tim.o(i.TIM_SelectInputTrigger) for TIM_SelectInputTrigger
    stm32f10x_usart.o(i.USART_DeInit) refers to stm32f10x_rcc.o(i.RCC_APB2PeriphResetCmd) for RCC_APB2PeriphResetCmd
    stm32f10x_usart.o(i.USART_DeInit) refers to stm32f10x_rcc.o(i.RCC_APB1PeriphResetCmd) for RCC_APB1PeriphResetCmd
    stm32f10x_usart.o(i.USART_Init) refers to stm32f10x_rcc.o(i.RCC_GetClocksFreq) for RCC_GetClocksFreq
    stm32f10x_wwdg.o(i.WWDG_DeInit) refers to stm32f10x_rcc.o(i.RCC_APB1PeriphResetCmd) for RCC_APB1PeriphResetCmd
    stm32f10x_bkp.o(i.BKP_DeInit) refers to stm32f10x_rcc.o(i.RCC_BackupResetCmd) for RCC_BackupResetCmd
    stm32f10x_pwr.o(i.PWR_DeInit) refers to stm32f10x_rcc.o(i.RCC_APB1PeriphResetCmd) for RCC_APB1PeriphResetCmd
    stm32f10x_adc.o(i.ADC_DeInit) refers to stm32f10x_rcc.o(i.RCC_APB2PeriphResetCmd) for RCC_APB2PeriphResetCmd
    stm32f10x_dac.o(i.DAC_DeInit) refers to stm32f10x_rcc.o(i.RCC_APB1PeriphResetCmd) for RCC_APB1PeriphResetCmd
    stm32f10x_rtc.o(i.RTC_SetAlarm) refers to stm32f10x_rtc.o(i.RTC_EnterConfigMode) for RTC_EnterConfigMode
    stm32f10x_rtc.o(i.RTC_SetAlarm) refers to stm32f10x_rtc.o(i.RTC_ExitConfigMode) for RTC_ExitConfigMode
    stm32f10x_rtc.o(i.RTC_SetCounter) refers to stm32f10x_rtc.o(i.RTC_EnterConfigMode) for RTC_EnterConfigMode
    stm32f10x_rtc.o(i.RTC_SetCounter) refers to stm32f10x_rtc.o(i.RTC_ExitConfigMode) for RTC_ExitConfigMode
    stm32f10x_rtc.o(i.RTC_SetPrescaler) refers to stm32f10x_rtc.o(i.RTC_EnterConfigMode) for RTC_EnterConfigMode
    stm32f10x_rtc.o(i.RTC_SetPrescaler) refers to stm32f10x_rtc.o(i.RTC_ExitConfigMode) for RTC_ExitConfigMode
    stm32f10x_can.o(i.CAN_DeInit) refers to stm32f10x_rcc.o(i.RCC_APB1PeriphResetCmd) for RCC_APB1PeriphResetCmd
    stm32f10x_can.o(i.CAN_GetITStatus) refers to stm32f10x_can.o(i.CheckITStatus) for CheckITStatus
    stm32f10x_spi.o(i.I2S_Init) refers to stm32f10x_rcc.o(i.RCC_GetClocksFreq) for RCC_GetClocksFreq
    stm32f10x_spi.o(i.SPI_I2S_DeInit) refers to stm32f10x_rcc.o(i.RCC_APB2PeriphResetCmd) for RCC_APB2PeriphResetCmd
    stm32f10x_spi.o(i.SPI_I2S_DeInit) refers to stm32f10x_rcc.o(i.RCC_APB1PeriphResetCmd) for RCC_APB1PeriphResetCmd
    stm32f10x_flash.o(i.FLASH_EnableWriteProtection) refers to stm32f10x_flash.o(i.FLASH_WaitForLastOperation) for FLASH_WaitForLastOperation
    stm32f10x_flash.o(i.FLASH_EraseAllBank1Pages) refers to stm32f10x_flash.o(i.FLASH_WaitForLastBank1Operation) for FLASH_WaitForLastBank1Operation
    stm32f10x_flash.o(i.FLASH_EraseAllPages) refers to stm32f10x_flash.o(i.FLASH_WaitForLastOperation) for FLASH_WaitForLastOperation
    stm32f10x_flash.o(i.FLASH_EraseOptionBytes) refers to stm32f10x_flash.o(i.FLASH_GetReadOutProtectionStatus) for FLASH_GetReadOutProtectionStatus
    stm32f10x_flash.o(i.FLASH_EraseOptionBytes) refers to stm32f10x_flash.o(i.FLASH_WaitForLastOperation) for FLASH_WaitForLastOperation
    stm32f10x_flash.o(i.FLASH_ErasePage) refers to stm32f10x_flash.o(i.FLASH_WaitForLastOperation) for FLASH_WaitForLastOperation
    stm32f10x_flash.o(i.FLASH_ProgramHalfWord) refers to stm32f10x_flash.o(i.FLASH_WaitForLastOperation) for FLASH_WaitForLastOperation
    stm32f10x_flash.o(i.FLASH_ProgramOptionByteData) refers to stm32f10x_flash.o(i.FLASH_WaitForLastOperation) for FLASH_WaitForLastOperation
    stm32f10x_flash.o(i.FLASH_ProgramWord) refers to stm32f10x_flash.o(i.FLASH_WaitForLastOperation) for FLASH_WaitForLastOperation
    stm32f10x_flash.o(i.FLASH_ReadOutProtection) refers to stm32f10x_flash.o(i.FLASH_WaitForLastOperation) for FLASH_WaitForLastOperation
    stm32f10x_flash.o(i.FLASH_UserOptionByteConfig) refers to stm32f10x_flash.o(i.FLASH_WaitForLastOperation) for FLASH_WaitForLastOperation
    stm32f10x_flash.o(i.FLASH_WaitForLastBank1Operation) refers to stm32f10x_flash.o(i.FLASH_GetBank1Status) for FLASH_GetBank1Status
    stm32f10x_flash.o(i.FLASH_WaitForLastOperation) refers to stm32f10x_flash.o(i.FLASH_GetBank1Status) for FLASH_GetBank1Status
    system_stm32f10x.o(i.SetSysClock) refers to system_stm32f10x.o(i.SetSysClockTo72) for SetSysClockTo72
    system_stm32f10x.o(i.SystemCoreClockUpdate) refers to system_stm32f10x.o(.data) for SystemCoreClock
    system_stm32f10x.o(i.SystemInit) refers to system_stm32f10x.o(i.SetSysClock) for SetSysClock
    led.o(i.LED_Init) refers to stm32f10x_rcc.o(i.RCC_APB2PeriphClockCmd) for RCC_APB2PeriphClockCmd
    led.o(i.LED_Init) refers to stm32f10x_gpio.o(i.GPIO_Init) for GPIO_Init
    led.o(i.LED_Init) refers to stm32f10x_gpio.o(i.GPIO_SetBits) for GPIO_SetBits
    tftlcd.o(i.LCD_Clear) refers to tftlcd.o(i.LCD_Set_Window) for LCD_Set_Window
    tftlcd.o(i.LCD_Clear) refers to tftlcd.o(i.LCD_WriteData_Color) for LCD_WriteData_Color
    tftlcd.o(i.LCD_Clear) refers to tftlcd.o(.data) for tftlcd_data
    tftlcd.o(i.LCD_Display_Dir) refers to tftlcd.o(i.LCD_WriteCmd) for LCD_WriteCmd
    tftlcd.o(i.LCD_Display_Dir) refers to tftlcd.o(i.LCD_WriteData) for LCD_WriteData
    tftlcd.o(i.LCD_Display_Dir) refers to tftlcd.o(.data) for tftlcd_data
    tftlcd.o(i.LCD_DrawFRONT_COLOR) refers to tftlcd.o(i.LCD_Set_Window) for LCD_Set_Window
    tftlcd.o(i.LCD_DrawFRONT_COLOR) refers to tftlcd.o(i.LCD_WriteData_Color) for LCD_WriteData_Color
    tftlcd.o(i.LCD_DrawLine) refers to tftlcd.o(i.LCD_DrawPoint) for LCD_DrawPoint
    tftlcd.o(i.LCD_DrawLine_Color) refers to tftlcd.o(i.LCD_DrawFRONT_COLOR) for LCD_DrawFRONT_COLOR
    tftlcd.o(i.LCD_DrawPoint) refers to tftlcd.o(i.LCD_Set_Window) for LCD_Set_Window
    tftlcd.o(i.LCD_DrawPoint) refers to tftlcd.o(i.LCD_WriteData_Color) for LCD_WriteData_Color
    tftlcd.o(i.LCD_DrawPoint) refers to tftlcd.o(.data) for FRONT_COLOR
    tftlcd.o(i.LCD_DrawRectangle) refers to tftlcd.o(i.LCD_DrawLine) for LCD_DrawLine
    tftlcd.o(i.LCD_Draw_Circle) refers to tftlcd.o(i.LCD_DrawPoint) for LCD_DrawPoint
    tftlcd.o(i.LCD_DrowSign) refers to tftlcd.o(i.LCD_Set_Window) for LCD_Set_Window
    tftlcd.o(i.LCD_DrowSign) refers to tftlcd.o(i.LCD_WriteData_Color) for LCD_WriteData_Color
    tftlcd.o(i.LCD_Fill) refers to tftlcd.o(i.LCD_Set_Window) for LCD_Set_Window
    tftlcd.o(i.LCD_Fill) refers to tftlcd.o(i.LCD_WriteData_Color) for LCD_WriteData_Color
    tftlcd.o(i.LCD_ReadPoint) refers to tftlcd.o(i.LCD_Set_Window) for LCD_Set_Window
    tftlcd.o(i.LCD_ReadPoint) refers to tftlcd.o(i.LCD_WriteCmd) for LCD_WriteCmd
    tftlcd.o(i.LCD_ReadPoint) refers to tftlcd.o(i.LCD_ReadData) for LCD_ReadData
    tftlcd.o(i.LCD_ReadPoint) refers to tftlcd.o(.data) for tftlcd_data
    tftlcd.o(i.LCD_Set_Window) refers to tftlcd.o(i.LCD_WriteCmd) for LCD_WriteCmd
    tftlcd.o(i.LCD_Set_Window) refers to tftlcd.o(i.LCD_WriteData) for LCD_WriteData
    tftlcd.o(i.LCD_Set_Window) refers to tftlcd.o(.data) for tftlcd_data
    tftlcd.o(i.LCD_ShowChar) refers to tftlcd.o(i.LCD_DrawFRONT_COLOR) for LCD_DrawFRONT_COLOR
    tftlcd.o(i.LCD_ShowChar) refers to tftlcd.o(.constdata) for ascii_1608
    tftlcd.o(i.LCD_ShowChar) refers to tftlcd.o(.data) for FRONT_COLOR
    tftlcd.o(i.LCD_ShowFontHZ) refers to tftlcd.o(i.LCD_DrawFRONT_COLOR) for LCD_DrawFRONT_COLOR
    tftlcd.o(i.LCD_ShowFontHZ) refers to tftlcd.o(.constdata) for CnChar32x29
    tftlcd.o(i.LCD_ShowFontHZ) refers to tftlcd.o(.data) for FRONT_COLOR
    tftlcd.o(i.LCD_ShowNum) refers to tftlcd.o(i.LCD_Pow) for LCD_Pow
    tftlcd.o(i.LCD_ShowNum) refers to tftlcd.o(i.LCD_ShowChar) for LCD_ShowChar
    tftlcd.o(i.LCD_ShowPicture) refers to tftlcd.o(i.LCD_Set_Window) for LCD_Set_Window
    tftlcd.o(i.LCD_ShowPicture) refers to tftlcd.o(i.LCD_WriteData_Color) for LCD_WriteData_Color
    tftlcd.o(i.LCD_ShowString) refers to tftlcd.o(i.LCD_ShowChar) for LCD_ShowChar
    tftlcd.o(i.LCD_ShowxNum) refers to tftlcd.o(i.LCD_Pow) for LCD_Pow
    tftlcd.o(i.LCD_ShowxNum) refers to tftlcd.o(i.LCD_ShowChar) for LCD_ShowChar
    tftlcd.o(i.LCD_WriteCmdData) refers to tftlcd.o(i.LCD_WriteCmd) for LCD_WriteCmd
    tftlcd.o(i.LCD_WriteCmdData) refers to tftlcd.o(i.LCD_WriteData) for LCD_WriteData
    tftlcd.o(i.TFTLCD_FSMC_Init) refers to stm32f10x_rcc.o(i.RCC_AHBPeriphClockCmd) for RCC_AHBPeriphClockCmd
    tftlcd.o(i.TFTLCD_FSMC_Init) refers to stm32f10x_fsmc.o(i.FSMC_NORSRAMInit) for FSMC_NORSRAMInit
    tftlcd.o(i.TFTLCD_FSMC_Init) refers to stm32f10x_fsmc.o(i.FSMC_NORSRAMCmd) for FSMC_NORSRAMCmd
    tftlcd.o(i.TFTLCD_GPIO_Init) refers to stm32f10x_rcc.o(i.RCC_APB2PeriphClockCmd) for RCC_APB2PeriphClockCmd
    tftlcd.o(i.TFTLCD_GPIO_Init) refers to stm32f10x_gpio.o(i.GPIO_Init) for GPIO_Init
    tftlcd.o(i.TFTLCD_Init) refers to tftlcd.o(i.TFTLCD_GPIO_Init) for TFTLCD_GPIO_Init
    tftlcd.o(i.TFTLCD_Init) refers to tftlcd.o(i.TFTLCD_FSMC_Init) for TFTLCD_FSMC_Init
    tftlcd.o(i.TFTLCD_Init) refers to systick.o(i.delay_ms) for delay_ms
    tftlcd.o(i.TFTLCD_Init) refers to tftlcd.o(i.LCD_WriteCmd) for LCD_WriteCmd
    tftlcd.o(i.TFTLCD_Init) refers to tftlcd.o(i.LCD_ReadData) for LCD_ReadData
    tftlcd.o(i.TFTLCD_Init) refers to printf8.o(i.__0printf$8) for __2printf
    tftlcd.o(i.TFTLCD_Init) refers to tftlcd.o(i.LCD_WriteData) for LCD_WriteData
    tftlcd.o(i.TFTLCD_Init) refers to tftlcd.o(i.LCD_Display_Dir) for LCD_Display_Dir
    tftlcd.o(i.TFTLCD_Init) refers to tftlcd.o(i.LCD_Clear) for LCD_Clear
    tftlcd.o(i.TFTLCD_Init) refers to tftlcd.o(.data) for tftlcd_data
    key.o(i.KEY_Init) refers to stm32f10x_rcc.o(i.RCC_APB2PeriphClockCmd) for RCC_APB2PeriphClockCmd
    key.o(i.KEY_Init) refers to stm32f10x_gpio.o(i.GPIO_Init) for GPIO_Init
    key.o(i.KEY_Scan) refers to systick.o(i.delay_ms) for delay_ms
    key.o(i.KEY_Scan) refers to key.o(.data) for key
    ov7670.o(i.OV7670_Brightness) refers to sccb.o(i.SCCB_WR_Reg) for SCCB_WR_Reg
    ov7670.o(i.OV7670_Color_Saturation) refers to sccb.o(i.SCCB_WR_Reg) for SCCB_WR_Reg
    ov7670.o(i.OV7670_Contrast) refers to sccb.o(i.SCCB_WR_Reg) for SCCB_WR_Reg
    ov7670.o(i.OV7670_Init) refers to stm32f10x_rcc.o(i.RCC_APB2PeriphClockCmd) for RCC_APB2PeriphClockCmd
    ov7670.o(i.OV7670_Init) refers to stm32f10x_gpio.o(i.GPIO_Init) for GPIO_Init
    ov7670.o(i.OV7670_Init) refers to stm32f10x_gpio.o(i.GPIO_SetBits) for GPIO_SetBits
    ov7670.o(i.OV7670_Init) refers to sccb.o(i.SCCB_Init) for SCCB_Init
    ov7670.o(i.OV7670_Init) refers to sccb.o(i.SCCB_WR_Reg) for SCCB_WR_Reg
    ov7670.o(i.OV7670_Init) refers to systick.o(i.delay_ms) for delay_ms
    ov7670.o(i.OV7670_Init) refers to sccb.o(i.SCCB_RD_Reg) for SCCB_RD_Reg
    ov7670.o(i.OV7670_Init) refers to ov7670.o(.constdata) for ov7670_init_reg_tbl
    ov7670.o(i.OV7670_Light_Mode) refers to sccb.o(i.SCCB_WR_Reg) for SCCB_WR_Reg
    ov7670.o(i.OV7670_Special_Effects) refers to sccb.o(i.SCCB_WR_Reg) for SCCB_WR_Reg
    ov7670.o(i.OV7670_Window_Set) refers to sccb.o(i.SCCB_RD_Reg) for SCCB_RD_Reg
    ov7670.o(i.OV7670_Window_Set) refers to sccb.o(i.SCCB_WR_Reg) for SCCB_WR_Reg
    sccb.o(i.SCCB_Init) refers to stm32f10x_rcc.o(i.RCC_APB2PeriphClockCmd) for RCC_APB2PeriphClockCmd
    sccb.o(i.SCCB_Init) refers to stm32f10x_gpio.o(i.GPIO_Init) for GPIO_Init
    sccb.o(i.SCCB_Init) refers to stm32f10x_gpio.o(i.GPIO_SetBits) for GPIO_SetBits
    sccb.o(i.SCCB_Init) refers to sccb.o(i.SCCB_SDA_OUT) for SCCB_SDA_OUT
    sccb.o(i.SCCB_No_Ack) refers to systick.o(i.delay_us) for delay_us
    sccb.o(i.SCCB_RD_Byte) refers to sccb.o(i.SCCB_SDA_IN) for SCCB_SDA_IN
    sccb.o(i.SCCB_RD_Byte) refers to systick.o(i.delay_us) for delay_us
    sccb.o(i.SCCB_RD_Byte) refers to sccb.o(i.SCCB_SDA_OUT) for SCCB_SDA_OUT
    sccb.o(i.SCCB_RD_Reg) refers to sccb.o(i.SCCB_Start) for SCCB_Start
    sccb.o(i.SCCB_RD_Reg) refers to sccb.o(i.SCCB_WR_Byte) for SCCB_WR_Byte
    sccb.o(i.SCCB_RD_Reg) refers to systick.o(i.delay_us) for delay_us
    sccb.o(i.SCCB_RD_Reg) refers to sccb.o(i.SCCB_Stop) for SCCB_Stop
    sccb.o(i.SCCB_RD_Reg) refers to sccb.o(i.SCCB_RD_Byte) for SCCB_RD_Byte
    sccb.o(i.SCCB_RD_Reg) refers to sccb.o(i.SCCB_No_Ack) for SCCB_No_Ack
    sccb.o(i.SCCB_SDA_IN) refers to stm32f10x_gpio.o(i.GPIO_Init) for GPIO_Init
    sccb.o(i.SCCB_SDA_OUT) refers to stm32f10x_gpio.o(i.GPIO_Init) for GPIO_Init
    sccb.o(i.SCCB_Start) refers to systick.o(i.delay_us) for delay_us
    sccb.o(i.SCCB_Stop) refers to systick.o(i.delay_us) for delay_us
    sccb.o(i.SCCB_WR_Byte) refers to systick.o(i.delay_us) for delay_us
    sccb.o(i.SCCB_WR_Byte) refers to sccb.o(i.SCCB_SDA_IN) for SCCB_SDA_IN
    sccb.o(i.SCCB_WR_Byte) refers to sccb.o(i.SCCB_SDA_OUT) for SCCB_SDA_OUT
    sccb.o(i.SCCB_WR_Reg) refers to sccb.o(i.SCCB_Start) for SCCB_Start
    sccb.o(i.SCCB_WR_Reg) refers to sccb.o(i.SCCB_WR_Byte) for SCCB_WR_Byte
    sccb.o(i.SCCB_WR_Reg) refers to systick.o(i.delay_us) for delay_us
    sccb.o(i.SCCB_WR_Reg) refers to sccb.o(i.SCCB_Stop) for SCCB_Stop
    exti.o(i.EXTI7_Init) refers to stm32f10x_rcc.o(i.RCC_APB2PeriphClockCmd) for RCC_APB2PeriphClockCmd
    exti.o(i.EXTI7_Init) refers to stm32f10x_gpio.o(i.GPIO_EXTILineConfig) for GPIO_EXTILineConfig
    exti.o(i.EXTI7_Init) refers to stm32f10x_exti.o(i.EXTI_Init) for EXTI_Init
    exti.o(i.EXTI7_Init) refers to misc.o(i.NVIC_Init) for NVIC_Init
    exti.o(i.EXTI9_5_IRQHandler) refers to stm32f10x_exti.o(i.EXTI_GetITStatus) for EXTI_GetITStatus
    exti.o(i.EXTI9_5_IRQHandler) refers to stm32f10x_exti.o(i.EXTI_ClearITPendingBit) for EXTI_ClearITPendingBit
    exti.o(i.EXTI9_5_IRQHandler) refers to exti.o(.data) for ov_sta
    time.o(i.TIM4_IRQHandler) refers to stm32f10x_tim.o(i.TIM_GetITStatus) for TIM_GetITStatus
    time.o(i.TIM4_IRQHandler) refers to printf8.o(i.__0printf$8) for __2printf
    time.o(i.TIM4_IRQHandler) refers to stm32f10x_tim.o(i.TIM_ClearITPendingBit) for TIM_ClearITPendingBit
    time.o(i.TIM4_IRQHandler) refers to time.o(.data) for ov_frame
    time.o(i.TIM4_Init) refers to stm32f10x_rcc.o(i.RCC_APB1PeriphClockCmd) for RCC_APB1PeriphClockCmd
    time.o(i.TIM4_Init) refers to stm32f10x_tim.o(i.TIM_TimeBaseInit) for TIM_TimeBaseInit
    time.o(i.TIM4_Init) refers to stm32f10x_tim.o(i.TIM_ITConfig) for TIM_ITConfig
    time.o(i.TIM4_Init) refers to stm32f10x_tim.o(i.TIM_ClearITPendingBit) for TIM_ClearITPendingBit
    time.o(i.TIM4_Init) refers to misc.o(i.NVIC_Init) for NVIC_Init
    time.o(i.TIM4_Init) refers to stm32f10x_tim.o(i.TIM_Cmd) for TIM_Cmd
    sd.o(i.SD_DisSelect) refers to sd.o(i.SD_SPI_ReadWriteByte) for SD_SPI_ReadWriteByte
    sd.o(i.SD_GetCID) refers to sd.o(i.SD_SendCmd) for SD_SendCmd
    sd.o(i.SD_GetCID) refers to sd.o(i.SD_RecvData) for SD_RecvData
    sd.o(i.SD_GetCID) refers to sd.o(i.SD_DisSelect) for SD_DisSelect
    sd.o(i.SD_GetCSD) refers to sd.o(i.SD_SendCmd) for SD_SendCmd
    sd.o(i.SD_GetCSD) refers to sd.o(i.SD_RecvData) for SD_RecvData
    sd.o(i.SD_GetCSD) refers to sd.o(i.SD_DisSelect) for SD_DisSelect
    sd.o(i.SD_GetResponse) refers to sd.o(i.SD_SPI_ReadWriteByte) for SD_SPI_ReadWriteByte
    sd.o(i.SD_GetSectorCount) refers to sd.o(i.SD_GetCSD) for SD_GetCSD
    sd.o(i.SD_Init) refers to sd.o(i.SD_SPI_Init) for SD_SPI_Init
    sd.o(i.SD_Init) refers to sd.o(i.SD_SPI_SpeedLow) for SD_SPI_SpeedLow
    sd.o(i.SD_Init) refers to sd.o(i.SD_SPI_ReadWriteByte) for SD_SPI_ReadWriteByte
    sd.o(i.SD_Init) refers to sd.o(i.SD_SendCmd) for SD_SendCmd
    sd.o(i.SD_Init) refers to sd.o(i.SD_DisSelect) for SD_DisSelect
    sd.o(i.SD_Init) refers to sd.o(i.SD_SPI_SpeedHigh) for SD_SPI_SpeedHigh
    sd.o(i.SD_Init) refers to sd.o(.data) for SD_Type
    sd.o(i.SD_ReadDisk) refers to sd.o(i.SD_SendCmd) for SD_SendCmd
    sd.o(i.SD_ReadDisk) refers to sd.o(i.SD_RecvData) for SD_RecvData
    sd.o(i.SD_ReadDisk) refers to sd.o(i.SD_DisSelect) for SD_DisSelect
    sd.o(i.SD_ReadDisk) refers to sd.o(.data) for SD_Type
    sd.o(i.SD_RecvData) refers to sd.o(i.SD_GetResponse) for SD_GetResponse
    sd.o(i.SD_RecvData) refers to spi.o(i.SPI2_ReadWriteByte) for SPI2_ReadWriteByte
    sd.o(i.SD_RecvData) refers to sd.o(i.SD_SPI_ReadWriteByte) for SD_SPI_ReadWriteByte
    sd.o(i.SD_SPI_Init) refers to stm32f10x_rcc.o(i.RCC_APB2PeriphClockCmd) for RCC_APB2PeriphClockCmd
    sd.o(i.SD_SPI_Init) refers to stm32f10x_gpio.o(i.GPIO_Init) for GPIO_Init
    sd.o(i.SD_SPI_Init) refers to stm32f10x_gpio.o(i.GPIO_SetBits) for GPIO_SetBits
    sd.o(i.SD_SPI_Init) refers to spi.o(i.SPI2_Init) for SPI2_Init
    sd.o(i.SD_SPI_ReadWriteByte) refers to spi.o(i.SPI2_ReadWriteByte) for SPI2_ReadWriteByte
    sd.o(i.SD_SPI_SpeedHigh) refers to spi.o(i.SPI2_SetSpeed) for SPI2_SetSpeed
    sd.o(i.SD_SPI_SpeedLow) refers to spi.o(i.SPI2_SetSpeed) for SPI2_SetSpeed
    sd.o(i.SD_Select) refers to sd.o(i.SD_WaitReady) for SD_WaitReady
    sd.o(i.SD_Select) refers to sd.o(i.SD_DisSelect) for SD_DisSelect
    sd.o(i.SD_SendBlock) refers to sd.o(i.SD_WaitReady) for SD_WaitReady
    sd.o(i.SD_SendBlock) refers to sd.o(i.SD_SPI_ReadWriteByte) for SD_SPI_ReadWriteByte
    sd.o(i.SD_SendBlock) refers to spi.o(i.SPI2_ReadWriteByte) for SPI2_ReadWriteByte
    sd.o(i.SD_SendCmd) refers to sd.o(i.SD_DisSelect) for SD_DisSelect
    sd.o(i.SD_SendCmd) refers to sd.o(i.SD_Select) for SD_Select
    sd.o(i.SD_SendCmd) refers to sd.o(i.SD_SPI_ReadWriteByte) for SD_SPI_ReadWriteByte
    sd.o(i.SD_WaitReady) refers to sd.o(i.SD_SPI_ReadWriteByte) for SD_SPI_ReadWriteByte
    sd.o(i.SD_WriteDisk) refers to sd.o(i.SD_SendCmd) for SD_SendCmd
    sd.o(i.SD_WriteDisk) refers to sd.o(i.SD_SendBlock) for SD_SendBlock
    sd.o(i.SD_WriteDisk) refers to sd.o(i.SD_DisSelect) for SD_DisSelect
    sd.o(i.SD_WriteDisk) refers to sd.o(.data) for SD_Type
    spi.o(i.SPI1_Init) refers to stm32f10x_rcc.o(i.RCC_APB2PeriphClockCmd) for RCC_APB2PeriphClockCmd
    spi.o(i.SPI1_Init) refers to stm32f10x_gpio.o(i.GPIO_Init) for GPIO_Init
    spi.o(i.SPI1_Init) refers to stm32f10x_spi.o(i.SPI_Init) for SPI_Init
    spi.o(i.SPI1_Init) refers to stm32f10x_spi.o(i.SPI_Cmd) for SPI_Cmd
    spi.o(i.SPI1_Init) refers to spi.o(i.SPI1_ReadWriteByte) for SPI1_ReadWriteByte
    spi.o(i.SPI1_ReadWriteByte) refers to stm32f10x_spi.o(i.SPI_I2S_GetFlagStatus) for SPI_I2S_GetFlagStatus
    spi.o(i.SPI1_ReadWriteByte) refers to stm32f10x_spi.o(i.SPI_I2S_SendData) for SPI_I2S_SendData
    spi.o(i.SPI1_ReadWriteByte) refers to stm32f10x_spi.o(i.SPI_I2S_ReceiveData) for SPI_I2S_ReceiveData
    spi.o(i.SPI1_SetSpeed) refers to stm32f10x_spi.o(i.SPI_Cmd) for SPI_Cmd
    spi.o(i.SPI2_Init) refers to stm32f10x_rcc.o(i.RCC_APB2PeriphClockCmd) for RCC_APB2PeriphClockCmd
    spi.o(i.SPI2_Init) refers to stm32f10x_rcc.o(i.RCC_APB1PeriphClockCmd) for RCC_APB1PeriphClockCmd
    spi.o(i.SPI2_Init) refers to stm32f10x_gpio.o(i.GPIO_Init) for GPIO_Init
    spi.o(i.SPI2_Init) refers to stm32f10x_spi.o(i.SPI_Init) for SPI_Init
    spi.o(i.SPI2_Init) refers to stm32f10x_spi.o(i.SPI_Cmd) for SPI_Cmd
    spi.o(i.SPI2_Init) refers to spi.o(i.SPI2_ReadWriteByte) for SPI2_ReadWriteByte
    spi.o(i.SPI2_ReadWriteByte) refers to stm32f10x_spi.o(i.SPI_I2S_GetFlagStatus) for SPI_I2S_GetFlagStatus
    spi.o(i.SPI2_ReadWriteByte) refers to stm32f10x_spi.o(i.SPI_I2S_SendData) for SPI_I2S_SendData
    spi.o(i.SPI2_ReadWriteByte) refers to stm32f10x_spi.o(i.SPI_I2S_ReceiveData) for SPI_I2S_ReceiveData
    spi.o(i.SPI2_SetSpeed) refers to stm32f10x_spi.o(i.SPI_Cmd) for SPI_Cmd
    flash.o(i.EN25QXX_Erase_Chip) refers to flash.o(i.EN25QXX_Write_Enable) for EN25QXX_Write_Enable
    flash.o(i.EN25QXX_Erase_Chip) refers to flash.o(i.EN25QXX_Wait_Busy) for EN25QXX_Wait_Busy
    flash.o(i.EN25QXX_Erase_Chip) refers to spi.o(i.SPI2_ReadWriteByte) for SPI2_ReadWriteByte
    flash.o(i.EN25QXX_Erase_Sector) refers to printf8.o(i.__0printf$8) for __2printf
    flash.o(i.EN25QXX_Erase_Sector) refers to flash.o(i.EN25QXX_Write_Enable) for EN25QXX_Write_Enable
    flash.o(i.EN25QXX_Erase_Sector) refers to flash.o(i.EN25QXX_Wait_Busy) for EN25QXX_Wait_Busy
    flash.o(i.EN25QXX_Erase_Sector) refers to spi.o(i.SPI2_ReadWriteByte) for SPI2_ReadWriteByte
    flash.o(i.EN25QXX_Init) refers to stm32f10x_rcc.o(i.RCC_APB2PeriphClockCmd) for RCC_APB2PeriphClockCmd
    flash.o(i.EN25QXX_Init) refers to stm32f10x_gpio.o(i.GPIO_Init) for GPIO_Init
    flash.o(i.EN25QXX_Init) refers to stm32f10x_gpio.o(i.GPIO_SetBits) for GPIO_SetBits
    flash.o(i.EN25QXX_Init) refers to spi.o(i.SPI2_Init) for SPI2_Init
    flash.o(i.EN25QXX_Init) refers to flash.o(i.EN25QXX_ReadID) for EN25QXX_ReadID
    flash.o(i.EN25QXX_Init) refers to flash.o(.data) for EN25QXX_TYPE
    flash.o(i.EN25QXX_PowerDown) refers to spi.o(i.SPI2_ReadWriteByte) for SPI2_ReadWriteByte
    flash.o(i.EN25QXX_PowerDown) refers to systick.o(i.delay_us) for delay_us
    flash.o(i.EN25QXX_Read) refers to spi.o(i.SPI2_ReadWriteByte) for SPI2_ReadWriteByte
    flash.o(i.EN25QXX_ReadID) refers to spi.o(i.SPI2_ReadWriteByte) for SPI2_ReadWriteByte
    flash.o(i.EN25QXX_ReadSR) refers to spi.o(i.SPI2_ReadWriteByte) for SPI2_ReadWriteByte
    flash.o(i.EN25QXX_WAKEUP) refers to spi.o(i.SPI2_ReadWriteByte) for SPI2_ReadWriteByte
    flash.o(i.EN25QXX_WAKEUP) refers to systick.o(i.delay_us) for delay_us
    flash.o(i.EN25QXX_Wait_Busy) refers to flash.o(i.EN25QXX_ReadSR) for EN25QXX_ReadSR
    flash.o(i.EN25QXX_Write) refers to flash.o(i.EN25QXX_Read) for EN25QXX_Read
    flash.o(i.EN25QXX_Write) refers to flash.o(i.EN25QXX_Erase_Sector) for EN25QXX_Erase_Sector
    flash.o(i.EN25QXX_Write) refers to flash.o(i.EN25QXX_Write_NoCheck) for EN25QXX_Write_NoCheck
    flash.o(i.EN25QXX_Write) refers to flash.o(.bss) for EN25QXX_BUFFER
    flash.o(i.EN25QXX_Write_Disable) refers to spi.o(i.SPI2_ReadWriteByte) for SPI2_ReadWriteByte
    flash.o(i.EN25QXX_Write_Enable) refers to spi.o(i.SPI2_ReadWriteByte) for SPI2_ReadWriteByte
    flash.o(i.EN25QXX_Write_NoCheck) refers to flash.o(i.EN25QXX_Write_Page) for EN25QXX_Write_Page
    flash.o(i.EN25QXX_Write_Page) refers to flash.o(i.EN25QXX_Write_Enable) for EN25QXX_Write_Enable
    flash.o(i.EN25QXX_Write_Page) refers to spi.o(i.SPI2_ReadWriteByte) for SPI2_ReadWriteByte
    flash.o(i.EN25QXX_Write_Page) refers to flash.o(i.EN25QXX_Wait_Busy) for EN25QXX_Wait_Busy
    flash.o(i.EN25QXX_Write_SR) refers to spi.o(i.SPI2_ReadWriteByte) for SPI2_ReadWriteByte
    esp8266_drive.o(i.ESP8266_AT_Test) refers to stm32f10x_gpio.o(i.GPIO_SetBits) for GPIO_SetBits
    esp8266_drive.o(i.ESP8266_AT_Test) refers to systick.o(i.delay_ms) for delay_ms
    esp8266_drive.o(i.ESP8266_AT_Test) refers to esp8266_drive.o(i.ESP8266_Send_AT_Cmd) for ESP8266_Send_AT_Cmd
    esp8266_drive.o(i.ESP8266_AT_Test) refers to esp8266_drive.o(i.ESP8266_Rst) for ESP8266_Rst
    esp8266_drive.o(i.ESP8266_Enable_MultipleId) refers to printf8.o(i.__0sprintf$8) for __2sprintf
    esp8266_drive.o(i.ESP8266_Enable_MultipleId) refers to esp8266_drive.o(i.ESP8266_Send_AT_Cmd) for ESP8266_Send_AT_Cmd
    esp8266_drive.o(i.ESP8266_ExitUnvarnishSend) refers to systick.o(i.delay_ms) for delay_ms
    esp8266_drive.o(i.ESP8266_ExitUnvarnishSend) refers to esp8266_public.o(i.USART_printf) for USART_printf
    esp8266_drive.o(i.ESP8266_Get_LinkStatus) refers to esp8266_drive.o(i.ESP8266_Send_AT_Cmd) for ESP8266_Send_AT_Cmd
    esp8266_drive.o(i.ESP8266_Get_LinkStatus) refers to strstr.o(.text) for strstr
    esp8266_drive.o(i.ESP8266_Get_LinkStatus) refers to esp8266_drive.o(.bss) for ESP8266_Fram_Record_Struct
    esp8266_drive.o(i.ESP8266_Init) refers to stm32f10x_rcc.o(i.RCC_APB2PeriphClockCmd) for RCC_APB2PeriphClockCmd
    esp8266_drive.o(i.ESP8266_Init) refers to stm32f10x_gpio.o(i.GPIO_Init) for GPIO_Init
    esp8266_drive.o(i.ESP8266_Init) refers to esp8266_drive.o(i.USART2_Init) for USART2_Init
    esp8266_drive.o(i.ESP8266_Init) refers to stm32f10x_gpio.o(i.GPIO_SetBits) for GPIO_SetBits
    esp8266_drive.o(i.ESP8266_Init) refers to stm32f10x_gpio.o(i.GPIO_ResetBits) for GPIO_ResetBits
    esp8266_drive.o(i.ESP8266_JoinAP) refers to printf8.o(i.__0sprintf$8) for __2sprintf
    esp8266_drive.o(i.ESP8266_JoinAP) refers to esp8266_drive.o(i.ESP8266_Send_AT_Cmd) for ESP8266_Send_AT_Cmd
    esp8266_drive.o(i.ESP8266_Link_Server) refers to memseta.o(.text) for __aeabi_memclr4
    esp8266_drive.o(i.ESP8266_Link_Server) refers to printf8.o(i.__0sprintf$8) for __2sprintf
    esp8266_drive.o(i.ESP8266_Link_Server) refers to esp8266_drive.o(i.ESP8266_Send_AT_Cmd) for ESP8266_Send_AT_Cmd
    esp8266_drive.o(i.ESP8266_Net_Mode_Choose) refers to esp8266_drive.o(i.ESP8266_Send_AT_Cmd) for ESP8266_Send_AT_Cmd
    esp8266_drive.o(i.ESP8266_ReceiveString) refers to strstr.o(.text) for strstr
    esp8266_drive.o(i.ESP8266_ReceiveString) refers to esp8266_drive.o(.bss) for ESP8266_Fram_Record_Struct
    esp8266_drive.o(i.ESP8266_Rst) refers to stm32f10x_gpio.o(i.GPIO_ResetBits) for GPIO_ResetBits
    esp8266_drive.o(i.ESP8266_Rst) refers to systick.o(i.delay_ms) for delay_ms
    esp8266_drive.o(i.ESP8266_Rst) refers to stm32f10x_gpio.o(i.GPIO_SetBits) for GPIO_SetBits
    esp8266_drive.o(i.ESP8266_SendString) refers to esp8266_public.o(i.USART_printf) for USART_printf
    esp8266_drive.o(i.ESP8266_SendString) refers to printf8.o(i.__0sprintf$8) for __2sprintf
    esp8266_drive.o(i.ESP8266_SendString) refers to esp8266_drive.o(i.ESP8266_Send_AT_Cmd) for ESP8266_Send_AT_Cmd
    esp8266_drive.o(i.ESP8266_Send_AT_Cmd) refers to esp8266_public.o(i.USART_printf) for USART_printf
    esp8266_drive.o(i.ESP8266_Send_AT_Cmd) refers to systick.o(i.delay_ms) for delay_ms
    esp8266_drive.o(i.ESP8266_Send_AT_Cmd) refers to printf8.o(i.__0printf$8) for __2printf
    esp8266_drive.o(i.ESP8266_Send_AT_Cmd) refers to strstr.o(.text) for strstr
    esp8266_drive.o(i.ESP8266_Send_AT_Cmd) refers to esp8266_drive.o(.bss) for ESP8266_Fram_Record_Struct
    esp8266_drive.o(i.ESP8266_UnvarnishSend) refers to esp8266_drive.o(i.ESP8266_Send_AT_Cmd) for ESP8266_Send_AT_Cmd
    esp8266_drive.o(i.USART2_IRQHandler) refers to stm32f10x_usart.o(i.USART_GetITStatus) for USART_GetITStatus
    esp8266_drive.o(i.USART2_IRQHandler) refers to stm32f10x_usart.o(i.USART_ReceiveData) for USART_ReceiveData
    esp8266_drive.o(i.USART2_IRQHandler) refers to strstr.o(.text) for strstr
    esp8266_drive.o(i.USART2_IRQHandler) refers to esp8266_drive.o(.bss) for ESP8266_Fram_Record_Struct
    esp8266_drive.o(i.USART2_IRQHandler) refers to esp8266_public.o(.data) for TcpClosedFlag
    esp8266_drive.o(i.USART2_Init) refers to stm32f10x_rcc.o(i.RCC_APB1PeriphClockCmd) for RCC_APB1PeriphClockCmd
    esp8266_drive.o(i.USART2_Init) refers to stm32f10x_rcc.o(i.RCC_APB2PeriphClockCmd) for RCC_APB2PeriphClockCmd
    esp8266_drive.o(i.USART2_Init) refers to stm32f10x_gpio.o(i.GPIO_Init) for GPIO_Init
    esp8266_drive.o(i.USART2_Init) refers to misc.o(i.NVIC_Init) for NVIC_Init
    esp8266_drive.o(i.USART2_Init) refers to stm32f10x_usart.o(i.USART_Init) for USART_Init
    esp8266_drive.o(i.USART2_Init) refers to stm32f10x_usart.o(i.USART_ITConfig) for USART_ITConfig
    esp8266_drive.o(i.USART2_Init) refers to stm32f10x_usart.o(i.USART_Cmd) for USART_Cmd
    esp8266_public.o(i.ESP8266_ConnectToServer) refers to esp8266_drive.o(i.ESP8266_Send_AT_Cmd) for ESP8266_Send_AT_Cmd
    esp8266_public.o(i.ESP8266_ConnectToServer) refers to memseta.o(.text) for __aeabi_memclr
    esp8266_public.o(i.ESP8266_ConnectToServer) refers to printf8.o(i.__0printf$8) for __2printf
    esp8266_public.o(i.ESP8266_ConnectToServer) refers to esp8266_drive.o(.bss) for ESP8266_Fram_Record_Struct
    esp8266_public.o(i.ESP8266_STA_LinkAP) refers to printf8.o(i.__0printf$8) for __2printf
    esp8266_public.o(i.ESP8266_STA_LinkAP) refers to stm32f10x_gpio.o(i.GPIO_SetBits) for GPIO_SetBits
    esp8266_public.o(i.ESP8266_STA_LinkAP) refers to esp8266_drive.o(i.ESP8266_AT_Test) for ESP8266_AT_Test
    esp8266_public.o(i.ESP8266_STA_LinkAP) refers to esp8266_drive.o(i.ESP8266_Net_Mode_Choose) for ESP8266_Net_Mode_Choose
    esp8266_public.o(i.ESP8266_STA_LinkAP) refers to esp8266_drive.o(i.ESP8266_JoinAP) for ESP8266_JoinAP
    esp8266_public.o(i.ESP8266_STA_LinkAP) refers to esp8266_drive.o(i.ESP8266_Enable_MultipleId) for ESP8266_Enable_MultipleId
    esp8266_public.o(i.PostToWeb) refers to ff.o(i.f_open) for f_open
    esp8266_public.o(i.PostToWeb) refers to esp8266_drive.o(i.ESP8266_SendString) for ESP8266_SendString
    esp8266_public.o(i.PostToWeb) refers to printf8.o(i.__0sprintf$8) for __2sprintf
    esp8266_public.o(i.PostToWeb) refers to ff.o(i.f_read) for f_read
    esp8266_public.o(i.PostToWeb) refers to ff.o(i.f_close) for f_close
    esp8266_public.o(i.PostToWeb) refers to fatfs_app.o(.data) for ftemp
    esp8266_public.o(i.PostToWeb) refers to esp8266_drive.o(.bss) for ESP8266_Fram_Record_Struct
    esp8266_public.o(i.PostToWeb) refers to esp8266_public.o(.conststring) for .conststring
    esp8266_public.o(i.USART_printf) refers to stm32f10x_usart.o(i.USART_SendData) for USART_SendData
    esp8266_public.o(i.USART_printf) refers to stm32f10x_usart.o(i.USART_GetFlagStatus) for USART_GetFlagStatus
    esp8266_public.o(i.USART_printf) refers to esp8266_public.o(i.itoa) for itoa
    systick.o(i.SysTick_Init) refers to misc.o(i.SysTick_CLKSourceConfig) for SysTick_CLKSourceConfig
    systick.o(i.SysTick_Init) refers to systick.o(.data) for fac_us
    systick.o(i.delay_ms) refers to systick.o(.data) for fac_ms
    systick.o(i.delay_us) refers to systick.o(.data) for fac_us
    usart.o(i.USART1_IRQHandler) refers to stm32f10x_usart.o(i.USART_GetITStatus) for USART_GetITStatus
    usart.o(i.USART1_IRQHandler) refers to stm32f10x_usart.o(i.USART_ReceiveData) for USART_ReceiveData
    usart.o(i.USART1_IRQHandler) refers to stm32f10x_usart.o(i.USART_SendData) for USART_SendData
    usart.o(i.USART1_IRQHandler) refers to stm32f10x_usart.o(i.USART_GetFlagStatus) for USART_GetFlagStatus
    usart.o(i.USART1_IRQHandler) refers to stm32f10x_usart.o(i.USART_ClearFlag) for USART_ClearFlag
    usart.o(i.USART1_Init) refers to stm32f10x_rcc.o(i.RCC_APB2PeriphClockCmd) for RCC_APB2PeriphClockCmd
    usart.o(i.USART1_Init) refers to stm32f10x_gpio.o(i.GPIO_Init) for GPIO_Init
    usart.o(i.USART1_Init) refers to stm32f10x_usart.o(i.USART_Init) for USART_Init
    usart.o(i.USART1_Init) refers to stm32f10x_usart.o(i.USART_Cmd) for USART_Cmd
    usart.o(i.USART1_Init) refers to stm32f10x_usart.o(i.USART_ClearFlag) for USART_ClearFlag
    usart.o(i.USART1_Init) refers to stm32f10x_usart.o(i.USART_ITConfig) for USART_ITConfig
    usart.o(i.USART1_Init) refers to misc.o(i.NVIC_Init) for NVIC_Init
    usart.o(i.fputc) refers to stm32f10x_usart.o(i.USART_SendData) for USART_SendData
    usart.o(i.fputc) refers to stm32f10x_usart.o(i.USART_GetFlagStatus) for USART_GetFlagStatus
    diskio.o(i.disk_initialize) refers to sd.o(i.SD_Init) for SD_Init
    diskio.o(i.disk_initialize) refers to flash.o(i.EN25QXX_Init) for EN25QXX_Init
    diskio.o(i.disk_initialize) refers to diskio.o(.data) for FLASH_SECTOR_COUNT
    diskio.o(i.disk_ioctl) refers to sd.o(i.SD_GetSectorCount) for SD_GetSectorCount
    diskio.o(i.disk_ioctl) refers to diskio.o(.data) for FLASH_SECTOR_COUNT
    diskio.o(i.disk_read) refers to sd.o(i.SD_ReadDisk) for SD_ReadDisk
    diskio.o(i.disk_read) refers to sd.o(i.SD_Init) for SD_Init
    diskio.o(i.disk_read) refers to flash.o(i.EN25QXX_Read) for EN25QXX_Read
    diskio.o(i.disk_write) refers to sd.o(i.SD_WriteDisk) for SD_WriteDisk
    diskio.o(i.disk_write) refers to sd.o(i.SD_Init) for SD_Init
    diskio.o(i.disk_write) refers to flash.o(i.EN25QXX_Write) for EN25QXX_Write
    diskio.o(i.ff_memalloc) refers to malloc.o(i.mymalloc) for mymalloc
    diskio.o(i.ff_memfree) refers to malloc.o(i.myfree) for myfree
    ff.o(i.check_fs) refers to ff.o(i.move_window) for move_window
    ff.o(i.cmp_lfn) refers to cc936.o(i.ff_wtoupper) for ff_wtoupper
    ff.o(i.cmp_lfn) refers to ff.o(.constdata) for LfnOfs
    ff.o(i.create_chain) refers to ff.o(i.get_fat) for get_fat
    ff.o(i.create_chain) refers to ff.o(i.put_fat) for put_fat
    ff.o(i.create_name) refers to cc936.o(i.ff_convert) for ff_convert
    ff.o(i.create_name) refers to ff.o(i.chk_chr) for chk_chr
    ff.o(i.create_name) refers to ff.o(i.mem_set) for mem_set
    ff.o(i.create_name) refers to cc936.o(i.ff_wtoupper) for ff_wtoupper
    ff.o(i.dir_alloc) refers to ff.o(i.dir_sdi) for dir_sdi
    ff.o(i.dir_alloc) refers to ff.o(i.move_window) for move_window
    ff.o(i.dir_alloc) refers to ff.o(i.dir_next) for dir_next
    ff.o(i.dir_find) refers to ff.o(i.dir_sdi) for dir_sdi
    ff.o(i.dir_find) refers to ff.o(i.move_window) for move_window
    ff.o(i.dir_find) refers to ff.o(i.cmp_lfn) for cmp_lfn
    ff.o(i.dir_find) refers to ff.o(i.sum_sfn) for sum_sfn
    ff.o(i.dir_find) refers to ff.o(i.mem_cmp) for mem_cmp
    ff.o(i.dir_find) refers to ff.o(i.dir_next) for dir_next
    ff.o(i.dir_next) refers to ff.o(i.get_fat) for get_fat
    ff.o(i.dir_next) refers to ff.o(i.create_chain) for create_chain
    ff.o(i.dir_next) refers to ff.o(i.sync_window) for sync_window
    ff.o(i.dir_next) refers to ff.o(i.mem_set) for mem_set
    ff.o(i.dir_next) refers to ff.o(i.clust2sect) for clust2sect
    ff.o(i.dir_read) refers to ff.o(i.move_window) for move_window
    ff.o(i.dir_read) refers to ff.o(i.pick_lfn) for pick_lfn
    ff.o(i.dir_read) refers to ff.o(i.sum_sfn) for sum_sfn
    ff.o(i.dir_read) refers to ff.o(i.dir_next) for dir_next
    ff.o(i.dir_register) refers to ff.o(i.mem_cpy) for mem_cpy
    ff.o(i.dir_register) refers to ff.o(i.gen_numname) for gen_numname
    ff.o(i.dir_register) refers to ff.o(i.dir_find) for dir_find
    ff.o(i.dir_register) refers to ff.o(i.dir_alloc) for dir_alloc
    ff.o(i.dir_register) refers to ff.o(i.dir_sdi) for dir_sdi
    ff.o(i.dir_register) refers to ff.o(i.sum_sfn) for sum_sfn
    ff.o(i.dir_register) refers to ff.o(i.move_window) for move_window
    ff.o(i.dir_register) refers to ff.o(i.fit_lfn) for fit_lfn
    ff.o(i.dir_register) refers to ff.o(i.dir_next) for dir_next
    ff.o(i.dir_register) refers to ff.o(i.mem_set) for mem_set
    ff.o(i.dir_remove) refers to ff.o(i.dir_sdi) for dir_sdi
    ff.o(i.dir_remove) refers to ff.o(i.move_window) for move_window
    ff.o(i.dir_remove) refers to ff.o(i.mem_set) for mem_set
    ff.o(i.dir_remove) refers to ff.o(i.dir_next) for dir_next
    ff.o(i.dir_sdi) refers to ff.o(i.get_fat) for get_fat
    ff.o(i.dir_sdi) refers to ff.o(i.clust2sect) for clust2sect
    ff.o(i.f_chmod) refers to ff.o(i.find_volume) for find_volume
    ff.o(i.f_chmod) refers to diskio.o(i.ff_memalloc) for ff_memalloc
    ff.o(i.f_chmod) refers to ff.o(i.follow_path) for follow_path
    ff.o(i.f_chmod) refers to diskio.o(i.ff_memfree) for ff_memfree
    ff.o(i.f_chmod) refers to ff.o(i.sync_fs) for sync_fs
    ff.o(i.f_close) refers to ff.o(i.f_sync) for f_sync
    ff.o(i.f_close) refers to ff.o(i.validate) for validate
    ff.o(i.f_closedir) refers to ff.o(i.validate) for validate
    ff.o(i.f_getfree) refers to ff.o(i.find_volume) for find_volume
    ff.o(i.f_getfree) refers to ff.o(i.get_fat) for get_fat
    ff.o(i.f_getfree) refers to ff.o(i.move_window) for move_window
    ff.o(i.f_getlabel) refers to ff.o(i.find_volume) for find_volume
    ff.o(i.f_getlabel) refers to ff.o(i.dir_sdi) for dir_sdi
    ff.o(i.f_getlabel) refers to ff.o(i.dir_read) for dir_read
    ff.o(i.f_getlabel) refers to ff.o(i.mem_cpy) for mem_cpy
    ff.o(i.f_getlabel) refers to ff.o(i.move_window) for move_window
    ff.o(i.f_gets) refers to ff.o(i.f_read) for f_read
    ff.o(i.f_lseek) refers to ff.o(i.validate) for validate
    ff.o(i.f_lseek) refers to ff.o(i.get_fat) for get_fat
    ff.o(i.f_lseek) refers to ff.o(i.clmt_clust) for clmt_clust
    ff.o(i.f_lseek) refers to ff.o(i.clust2sect) for clust2sect
    ff.o(i.f_lseek) refers to diskio.o(i.disk_write) for disk_write
    ff.o(i.f_lseek) refers to diskio.o(i.disk_read) for disk_read
    ff.o(i.f_lseek) refers to ff.o(i.create_chain) for create_chain
    ff.o(i.f_mkdir) refers to diskio.o(i.get_fattime) for get_fattime
    ff.o(i.f_mkdir) refers to ff.o(i.find_volume) for find_volume
    ff.o(i.f_mkdir) refers to diskio.o(i.ff_memalloc) for ff_memalloc
    ff.o(i.f_mkdir) refers to ff.o(i.follow_path) for follow_path
    ff.o(i.f_mkdir) refers to ff.o(i.create_chain) for create_chain
    ff.o(i.f_mkdir) refers to ff.o(i.sync_window) for sync_window
    ff.o(i.f_mkdir) refers to ff.o(i.clust2sect) for clust2sect
    ff.o(i.f_mkdir) refers to ff.o(i.mem_set) for mem_set
    ff.o(i.f_mkdir) refers to ff.o(i.st_clust) for st_clust
    ff.o(i.f_mkdir) refers to ff.o(i.mem_cpy) for mem_cpy
    ff.o(i.f_mkdir) refers to ff.o(i.dir_register) for dir_register
    ff.o(i.f_mkdir) refers to ff.o(i.remove_chain) for remove_chain
    ff.o(i.f_mkdir) refers to ff.o(i.sync_fs) for sync_fs
    ff.o(i.f_mkdir) refers to diskio.o(i.ff_memfree) for ff_memfree
    ff.o(i.f_mkfs) refers to ff.o(i.get_ldnumber) for get_ldnumber
    ff.o(i.f_mkfs) refers to diskio.o(i.disk_initialize) for disk_initialize
    ff.o(i.f_mkfs) refers to diskio.o(i.disk_ioctl) for disk_ioctl
    ff.o(i.f_mkfs) refers to ff.o(i.mem_set) for mem_set
    ff.o(i.f_mkfs) refers to diskio.o(i.disk_write) for disk_write
    ff.o(i.f_mkfs) refers to ff.o(i.mem_cpy) for mem_cpy
    ff.o(i.f_mkfs) refers to diskio.o(i.get_fattime) for get_fattime
    ff.o(i.f_mkfs) refers to ff.o(.bss) for FatFs
    ff.o(i.f_mkfs) refers to ff.o(.constdata) for vst
    ff.o(i.f_mount) refers to ff.o(i.get_ldnumber) for get_ldnumber
    ff.o(i.f_mount) refers to ff.o(i.find_volume) for find_volume
    ff.o(i.f_mount) refers to ff.o(.bss) for FatFs
    ff.o(i.f_open) refers to ff.o(i.find_volume) for find_volume
    ff.o(i.f_open) refers to diskio.o(i.ff_memalloc) for ff_memalloc
    ff.o(i.f_open) refers to ff.o(i.follow_path) for follow_path
    ff.o(i.f_open) refers to ff.o(i.dir_register) for dir_register
    ff.o(i.f_open) refers to diskio.o(i.get_fattime) for get_fattime
    ff.o(i.f_open) refers to ff.o(i.ld_clust) for ld_clust
    ff.o(i.f_open) refers to ff.o(i.st_clust) for st_clust
    ff.o(i.f_open) refers to ff.o(i.remove_chain) for remove_chain
    ff.o(i.f_open) refers to ff.o(i.move_window) for move_window
    ff.o(i.f_open) refers to diskio.o(i.ff_memfree) for ff_memfree
    ff.o(i.f_opendir) refers to ff.o(i.find_volume) for find_volume
    ff.o(i.f_opendir) refers to diskio.o(i.ff_memalloc) for ff_memalloc
    ff.o(i.f_opendir) refers to ff.o(i.follow_path) for follow_path
    ff.o(i.f_opendir) refers to diskio.o(i.ff_memfree) for ff_memfree
    ff.o(i.f_opendir) refers to ff.o(i.ld_clust) for ld_clust
    ff.o(i.f_opendir) refers to ff.o(i.dir_sdi) for dir_sdi
    ff.o(i.f_printf) refers to ff.o(i.putc_bfd) for putc_bfd
    ff.o(i.f_printf) refers to ff.o(i.f_write) for f_write
    ff.o(i.f_putc) refers to ff.o(i.putc_bfd) for putc_bfd
    ff.o(i.f_putc) refers to ff.o(i.f_write) for f_write
    ff.o(i.f_puts) refers to ff.o(i.putc_bfd) for putc_bfd
    ff.o(i.f_puts) refers to ff.o(i.f_write) for f_write
    ff.o(i.f_read) refers to ff.o(i.validate) for validate
    ff.o(i.f_read) refers to ff.o(i.clmt_clust) for clmt_clust
    ff.o(i.f_read) refers to ff.o(i.get_fat) for get_fat
    ff.o(i.f_read) refers to ff.o(i.clust2sect) for clust2sect
    ff.o(i.f_read) refers to diskio.o(i.disk_read) for disk_read
    ff.o(i.f_read) refers to ff.o(i.mem_cpy) for mem_cpy
    ff.o(i.f_read) refers to diskio.o(i.disk_write) for disk_write
    ff.o(i.f_readdir) refers to ff.o(i.validate) for validate
    ff.o(i.f_readdir) refers to ff.o(i.dir_sdi) for dir_sdi
    ff.o(i.f_readdir) refers to diskio.o(i.ff_memalloc) for ff_memalloc
    ff.o(i.f_readdir) refers to ff.o(i.dir_read) for dir_read
    ff.o(i.f_readdir) refers to ff.o(i.get_fileinfo) for get_fileinfo
    ff.o(i.f_readdir) refers to ff.o(i.dir_next) for dir_next
    ff.o(i.f_readdir) refers to diskio.o(i.ff_memfree) for ff_memfree
    ff.o(i.f_rename) refers to ff.o(i.find_volume) for find_volume
    ff.o(i.f_rename) refers to diskio.o(i.ff_memalloc) for ff_memalloc
    ff.o(i.f_rename) refers to ff.o(i.follow_path) for follow_path
    ff.o(i.f_rename) refers to ff.o(i.mem_cpy) for mem_cpy
    ff.o(i.f_rename) refers to ff.o(i.get_ldnumber) for get_ldnumber
    ff.o(i.f_rename) refers to ff.o(i.dir_register) for dir_register
    ff.o(i.f_rename) refers to ff.o(i.ld_clust) for ld_clust
    ff.o(i.f_rename) refers to ff.o(i.clust2sect) for clust2sect
    ff.o(i.f_rename) refers to ff.o(i.move_window) for move_window
    ff.o(i.f_rename) refers to ff.o(i.st_clust) for st_clust
    ff.o(i.f_rename) refers to ff.o(i.dir_remove) for dir_remove
    ff.o(i.f_rename) refers to ff.o(i.sync_fs) for sync_fs
    ff.o(i.f_rename) refers to diskio.o(i.ff_memfree) for ff_memfree
    ff.o(i.f_setlabel) refers to ff.o(i.find_volume) for find_volume
    ff.o(i.f_setlabel) refers to cc936.o(i.ff_convert) for ff_convert
    ff.o(i.f_setlabel) refers to cc936.o(i.ff_wtoupper) for ff_wtoupper
    ff.o(i.f_setlabel) refers to ff.o(i.chk_chr) for chk_chr
    ff.o(i.f_setlabel) refers to ff.o(i.dir_sdi) for dir_sdi
    ff.o(i.f_setlabel) refers to ff.o(i.dir_read) for dir_read
    ff.o(i.f_setlabel) refers to ff.o(i.mem_cpy) for mem_cpy
    ff.o(i.f_setlabel) refers to diskio.o(i.get_fattime) for get_fattime
    ff.o(i.f_setlabel) refers to ff.o(i.sync_fs) for sync_fs
    ff.o(i.f_setlabel) refers to ff.o(i.dir_alloc) for dir_alloc
    ff.o(i.f_setlabel) refers to ff.o(i.mem_set) for mem_set
    ff.o(i.f_stat) refers to ff.o(i.find_volume) for find_volume
    ff.o(i.f_stat) refers to diskio.o(i.ff_memalloc) for ff_memalloc
    ff.o(i.f_stat) refers to ff.o(i.follow_path) for follow_path
    ff.o(i.f_stat) refers to ff.o(i.get_fileinfo) for get_fileinfo
    ff.o(i.f_stat) refers to diskio.o(i.ff_memfree) for ff_memfree
    ff.o(i.f_sync) refers to ff.o(i.validate) for validate
    ff.o(i.f_sync) refers to diskio.o(i.disk_write) for disk_write
    ff.o(i.f_sync) refers to ff.o(i.move_window) for move_window
    ff.o(i.f_sync) refers to ff.o(i.st_clust) for st_clust
    ff.o(i.f_sync) refers to diskio.o(i.get_fattime) for get_fattime
    ff.o(i.f_sync) refers to ff.o(i.sync_fs) for sync_fs
    ff.o(i.f_truncate) refers to ff.o(i.validate) for validate
    ff.o(i.f_truncate) refers to ff.o(i.remove_chain) for remove_chain
    ff.o(i.f_truncate) refers to ff.o(i.get_fat) for get_fat
    ff.o(i.f_truncate) refers to ff.o(i.put_fat) for put_fat
    ff.o(i.f_truncate) refers to diskio.o(i.disk_write) for disk_write
    ff.o(i.f_unlink) refers to ff.o(i.find_volume) for find_volume
    ff.o(i.f_unlink) refers to diskio.o(i.ff_memalloc) for ff_memalloc
    ff.o(i.f_unlink) refers to ff.o(i.follow_path) for follow_path
    ff.o(i.f_unlink) refers to ff.o(i.ld_clust) for ld_clust
    ff.o(i.f_unlink) refers to ff.o(i.mem_cpy) for mem_cpy
    ff.o(i.f_unlink) refers to ff.o(i.dir_sdi) for dir_sdi
    ff.o(i.f_unlink) refers to ff.o(i.dir_read) for dir_read
    ff.o(i.f_unlink) refers to ff.o(i.dir_remove) for dir_remove
    ff.o(i.f_unlink) refers to ff.o(i.remove_chain) for remove_chain
    ff.o(i.f_unlink) refers to ff.o(i.sync_fs) for sync_fs
    ff.o(i.f_unlink) refers to diskio.o(i.ff_memfree) for ff_memfree
    ff.o(i.f_utime) refers to ff.o(i.find_volume) for find_volume
    ff.o(i.f_utime) refers to diskio.o(i.ff_memalloc) for ff_memalloc
    ff.o(i.f_utime) refers to ff.o(i.follow_path) for follow_path
    ff.o(i.f_utime) refers to diskio.o(i.ff_memfree) for ff_memfree
    ff.o(i.f_utime) refers to ff.o(i.sync_fs) for sync_fs
    ff.o(i.f_write) refers to ff.o(i.validate) for validate
    ff.o(i.f_write) refers to ff.o(i.create_chain) for create_chain
    ff.o(i.f_write) refers to ff.o(i.clmt_clust) for clmt_clust
    ff.o(i.f_write) refers to diskio.o(i.disk_write) for disk_write
    ff.o(i.f_write) refers to ff.o(i.clust2sect) for clust2sect
    ff.o(i.f_write) refers to ff.o(i.mem_cpy) for mem_cpy
    ff.o(i.f_write) refers to diskio.o(i.disk_read) for disk_read
    ff.o(i.find_volume) refers to ff.o(i.get_ldnumber) for get_ldnumber
    ff.o(i.find_volume) refers to diskio.o(i.disk_status) for disk_status
    ff.o(i.find_volume) refers to diskio.o(i.disk_initialize) for disk_initialize
    ff.o(i.find_volume) refers to ff.o(i.check_fs) for check_fs
    ff.o(i.find_volume) refers to ff.o(i.move_window) for move_window
    ff.o(i.find_volume) refers to ff.o(.bss) for FatFs
    ff.o(i.find_volume) refers to ff.o(.data) for Fsid
    ff.o(i.fit_lfn) refers to ff.o(.constdata) for LfnOfs
    ff.o(i.follow_path) refers to ff.o(i.dir_sdi) for dir_sdi
    ff.o(i.follow_path) refers to ff.o(i.create_name) for create_name
    ff.o(i.follow_path) refers to ff.o(i.dir_find) for dir_find
    ff.o(i.follow_path) refers to ff.o(i.ld_clust) for ld_clust
    ff.o(i.gen_numname) refers to ff.o(i.mem_cpy) for mem_cpy
    ff.o(i.get_fat) refers to ff.o(i.move_window) for move_window
    ff.o(i.get_fileinfo) refers to cc936.o(i.ff_convert) for ff_convert
    ff.o(i.move_window) refers to ff.o(i.sync_window) for sync_window
    ff.o(i.move_window) refers to diskio.o(i.disk_read) for disk_read
    ff.o(i.pick_lfn) refers to ff.o(.constdata) for LfnOfs
    ff.o(i.put_fat) refers to ff.o(i.move_window) for move_window
    ff.o(i.putc_bfd) refers to ff.o(i.f_write) for f_write
    ff.o(i.remove_chain) refers to ff.o(i.get_fat) for get_fat
    ff.o(i.remove_chain) refers to ff.o(i.put_fat) for put_fat
    ff.o(i.sync_fs) refers to ff.o(i.sync_window) for sync_window
    ff.o(i.sync_fs) refers to ff.o(i.mem_set) for mem_set
    ff.o(i.sync_fs) refers to diskio.o(i.disk_write) for disk_write
    ff.o(i.sync_fs) refers to diskio.o(i.disk_ioctl) for disk_ioctl
    ff.o(i.sync_window) refers to diskio.o(i.disk_write) for disk_write
    ff.o(i.validate) refers to diskio.o(i.disk_status) for disk_status
    fatfs_app.o(i.FATFS_GetFree) refers to ff.o(i.f_getfree) for f_getfree
    fatfs_app.o(i.FATFS_Init) refers to malloc.o(i.mymalloc) for mymalloc
    fatfs_app.o(i.FATFS_Init) refers to fatfs_app.o(.bss) for fs
    fatfs_app.o(i.FATFS_Init) refers to fatfs_app.o(.data) for file
    fatfs_app.o(i.FATFS_ScanFiles) refers to ff.o(i.f_opendir) for f_opendir
    fatfs_app.o(i.FATFS_ScanFiles) refers to ff.o(i.f_readdir) for f_readdir
    fatfs_app.o(i.FATFS_ScanFiles) refers to fatfs_app.o(.bss) for lfn
    fatfs_app.o(i.FATFS_ScanFilesType) refers to strcpy.o(.text) for strcpy
    fatfs_app.o(i.FATFS_ScanFilesType) refers to fatfs_app.o(i.char_upper) for char_upper
    fatfs_app.o(i.FATFS_ScanFilesType) refers to strcmp.o(.text) for strcmp
    fatfs_app.o(i.FATFS_ScanFilesType) refers to fatfs_app.o(.constdata) for FILE_TYPE_TBL
    fatfs_app.o(.constdata) refers to fatfs_app.o(.conststring) for .conststring
    cc936.o(i.ff_convert) refers to cc936.o(.constdata) for oem2uni
    cc936.o(i.ff_wtoupper) refers to cc936.o(.constdata) for lower
    bmp.o(i.bmp_encode) refers to piclib.o(i.pic_memalloc) for pic_memalloc
    bmp.o(i.bmp_encode) refers to printf8.o(i.__0printf$8) for __2printf
    bmp.o(i.bmp_encode) refers to piclib.o(i.pic_memfree) for pic_memfree
    bmp.o(i.bmp_encode) refers to malloc.o(i.my_mem_set) for my_mem_set
    bmp.o(i.bmp_encode) refers to ff.o(i.f_open) for f_open
    bmp.o(i.bmp_encode) refers to ff.o(i.f_write) for f_write
    bmp.o(i.bmp_encode) refers to tftlcd.o(i.LCD_ReadPoint) for LCD_ReadPoint
    bmp.o(i.bmp_encode) refers to ff.o(i.f_close) for f_close
    bmp.o(i.bmp_encode) refers to tftlcd.o(.data) for tftlcd_data
    bmp.o(i.bmp_encode) refers to fatfs_app.o(.data) for bw
    bmp.o(i.camera_new_pathname) refers to printf8.o(i.__0sprintf$8) for __2sprintf
    bmp.o(i.camera_new_pathname) refers to ff.o(i.f_open) for f_open
    bmp.o(i.camera_new_pathname) refers to fatfs_app.o(.data) for ftemp
    bmp.o(i.minibmp_decode) refers to piclib.o(i.pic_memalloc) for pic_memalloc
    bmp.o(i.minibmp_decode) refers to piclib.o(i.pic_memfree) for pic_memfree
    bmp.o(i.minibmp_decode) refers to ff.o(i.f_open) for f_open
    bmp.o(i.minibmp_decode) refers to ff.o(i.f_read) for f_read
    bmp.o(i.minibmp_decode) refers to ff.o(i.f_lseek) for f_lseek
    bmp.o(i.minibmp_decode) refers to piclib.o(i.piclib_alpha_blend) for piclib_alpha_blend
    bmp.o(i.minibmp_decode) refers to ff.o(i.f_close) for f_close
    bmp.o(i.minibmp_decode) refers to piclib.o(.bss) for picinfo
    bmp.o(i.stdbmp_decode) refers to piclib.o(i.pic_memalloc) for pic_memalloc
    bmp.o(i.stdbmp_decode) refers to piclib.o(i.pic_memfree) for pic_memfree
    bmp.o(i.stdbmp_decode) refers to ff.o(i.f_open) for f_open
    bmp.o(i.stdbmp_decode) refers to ff.o(i.f_read) for f_read
    bmp.o(i.stdbmp_decode) refers to piclib.o(i.ai_draw_init) for ai_draw_init
    bmp.o(i.stdbmp_decode) refers to piclib.o(i.is_element_ok) for is_element_ok
    bmp.o(i.stdbmp_decode) refers to ff.o(i.f_close) for f_close
    bmp.o(i.stdbmp_decode) refers to piclib.o(.bss) for picinfo
    gif.o(i.gif_check_head) refers to ff.o(i.f_read) for f_read
    gif.o(i.gif_clear2bkcolor) refers to piclib.o(.bss) for pic_phy
    gif.o(i.gif_decode) refers to piclib.o(i.pic_memalloc) for pic_memalloc
    gif.o(i.gif_decode) refers to ff.o(i.f_open) for f_open
    gif.o(i.gif_decode) refers to gif.o(i.gif_check_head) for gif_check_head
    gif.o(i.gif_decode) refers to gif.o(i.gif_getinfo) for gif_getinfo
    gif.o(i.gif_decode) refers to gif.o(i.gif_drawimage) for gif_drawimage
    gif.o(i.gif_decode) refers to gif.o(i.gif_recovergctbl) for gif_recovergctbl
    gif.o(i.gif_decode) refers to systick.o(i.delay_ms) for delay_ms
    gif.o(i.gif_decode) refers to ff.o(i.f_close) for f_close
    gif.o(i.gif_decode) refers to piclib.o(i.pic_memfree) for pic_memfree
    gif.o(i.gif_decode) refers to gif.o(.data) for gifdecoding
    gif.o(i.gif_dispimage) refers to ff.o(i.f_read) for f_read
    gif.o(i.gif_dispimage) refers to gif.o(i.gif_initlzw) for gif_initlzw
    gif.o(i.gif_dispimage) refers to gif.o(i.gif_getnextbyte) for gif_getnextbyte
    gif.o(i.gif_dispimage) refers to piclib.o(.bss) for pic_phy
    gif.o(i.gif_dispimage) refers to gif.o(.constdata) for _aInterlaceOffset
    gif.o(i.gif_drawimage) refers to ff.o(i.f_read) for f_read
    gif.o(i.gif_drawimage) refers to gif.o(i.gif_savegctbl) for gif_savegctbl
    gif.o(i.gif_drawimage) refers to gif.o(i.gif_readcolortbl) for gif_readcolortbl
    gif.o(i.gif_drawimage) refers to gif.o(i.gif_clear2bkcolor) for gif_clear2bkcolor
    gif.o(i.gif_drawimage) refers to gif.o(i.gif_dispimage) for gif_dispimage
    gif.o(i.gif_drawimage) refers to ff.o(i.f_lseek) for f_lseek
    gif.o(i.gif_drawimage) refers to gif.o(i.gif_readextension) for gif_readextension
    gif.o(i.gif_getdatablock) refers to ff.o(i.f_read) for f_read
    gif.o(i.gif_getdatablock) refers to ff.o(i.f_lseek) for f_lseek
    gif.o(i.gif_getinfo) refers to ff.o(i.f_read) for f_read
    gif.o(i.gif_getinfo) refers to gif.o(i.gif_readcolortbl) for gif_readcolortbl
    gif.o(i.gif_getnextbyte) refers to malloc.o(i.my_mem_set) for my_mem_set
    gif.o(i.gif_getnextbyte) refers to gif.o(i.gif_getnextcode) for gif_getnextcode
    gif.o(i.gif_getnextcode) refers to gif.o(i.gif_getdatablock) for gif_getdatablock
    gif.o(i.gif_getnextcode) refers to gif.o(.constdata) for _aMaskTbl
    gif.o(i.gif_initlzw) refers to malloc.o(i.my_mem_set) for my_mem_set
    gif.o(i.gif_quit) refers to gif.o(.data) for gifdecoding
    gif.o(i.gif_readcolortbl) refers to ff.o(i.f_read) for f_read
    gif.o(i.gif_readcolortbl) refers to gif.o(i.gif_getrgb565) for gif_getrgb565
    gif.o(i.gif_readextension) refers to ff.o(i.f_read) for f_read
    gif.o(i.gif_readextension) refers to gif.o(i.gif_getdatablock) for gif_getdatablock
    piclib.o(i.ai_draw_init) refers to ffltui.o(.text) for __aeabi_ui2f
    piclib.o(i.ai_draw_init) refers to fdiv.o(.text) for __aeabi_fdiv
    piclib.o(i.ai_draw_init) refers to cfcmple.o(.text) for __aeabi_cfcmple
    piclib.o(i.ai_draw_init) refers to cfrcmple.o(.text) for __aeabi_cfrcmple
    piclib.o(i.ai_draw_init) refers to fmul.o(.text) for __aeabi_fmul
    piclib.o(i.ai_draw_init) refers to fadd.o(.text) for __aeabi_fsub
    piclib.o(i.ai_draw_init) refers to ffixui.o(.text) for __aeabi_f2uiz
    piclib.o(i.ai_draw_init) refers to piclib.o(.bss) for picinfo
    piclib.o(i.ai_load_picfile) refers to fatfs_app.o(i.FATFS_ScanFilesType) for FATFS_ScanFilesType
    piclib.o(i.ai_load_picfile) refers to bmp.o(i.stdbmp_decode) for stdbmp_decode
    piclib.o(i.ai_load_picfile) refers to tjpgd.o(i.jpg_decode) for jpg_decode
    piclib.o(i.ai_load_picfile) refers to gif.o(i.gif_decode) for gif_decode
    piclib.o(i.ai_load_picfile) refers to piclib.o(.bss) for picinfo
    piclib.o(i.ai_load_picfile) refers to tftlcd.o(.data) for tftlcd_data
    piclib.o(i.is_element_ok) refers to piclib.o(.bss) for picinfo
    piclib.o(i.pic_memalloc) refers to malloc.o(i.mymalloc) for mymalloc
    piclib.o(i.pic_memfree) refers to malloc.o(i.myfree) for myfree
    piclib.o(i.piclib_draw_hline) refers to tftlcd.o(i.LCD_Fill) for LCD_Fill
    piclib.o(i.piclib_draw_hline) refers to tftlcd.o(.data) for tftlcd_data
    piclib.o(i.piclib_fill_color) refers to tftlcd.o(i.LCD_Fill) for LCD_Fill
    piclib.o(i.piclib_init) refers to tftlcd.o(i.LCD_ReadPoint) for LCD_ReadPoint
    piclib.o(i.piclib_init) refers to piclib.o(.bss) for pic_phy
    piclib.o(i.piclib_init) refers to tftlcd.o(i.LCD_DrawFRONT_COLOR) for LCD_DrawFRONT_COLOR
    piclib.o(i.piclib_init) refers to tftlcd.o(i.LCD_Fill) for LCD_Fill
    piclib.o(i.piclib_init) refers to piclib.o(i.piclib_draw_hline) for piclib_draw_hline
    piclib.o(i.piclib_init) refers to piclib.o(i.piclib_fill_color) for piclib_fill_color
    piclib.o(i.piclib_init) refers to tftlcd.o(.data) for tftlcd_data
    tjpgd.o(i.block_idct) refers to tjpgd.o(.constdata) for Clip8
    tjpgd.o(i.create_huffman_tbl) refers to tjpgd.o(i.alloc_pool) for alloc_pool
    tjpgd.o(i.create_qt_tbl) refers to tjpgd.o(i.alloc_pool) for alloc_pool
    tjpgd.o(i.create_qt_tbl) refers to tjpgd.o(.constdata) for Zig
    tjpgd.o(i.jd_decomp) refers to tjpgd.o(i.restart) for restart
    tjpgd.o(i.jd_decomp) refers to tjpgd.o(i.mcu_load) for mcu_load
    tjpgd.o(i.jd_decomp) refers to tjpgd.o(i.mcu_output) for mcu_output
    tjpgd.o(i.jd_prepare) refers to tjpgd.o(i.alloc_pool) for alloc_pool
    tjpgd.o(i.jd_prepare) refers to tjpgd.o(i.create_huffman_tbl) for create_huffman_tbl
    tjpgd.o(i.jd_prepare) refers to tjpgd.o(i.create_qt_tbl) for create_qt_tbl
    tjpgd.o(i.jpeg_freeall) refers to piclib.o(i.pic_memfree) for pic_memfree
    tjpgd.o(i.jpeg_freeall) refers to tjpgd.o(.data) for f_jpeg
    tjpgd.o(i.jpeg_in_func) refers to ff.o(i.f_read) for f_read
    tjpgd.o(i.jpeg_in_func) refers to ff.o(i.f_lseek) for f_lseek
    tjpgd.o(i.jpeg_mallocall) refers to piclib.o(i.pic_memalloc) for pic_memalloc
    tjpgd.o(i.jpeg_mallocall) refers to tjpgd.o(.data) for f_jpeg
    tjpgd.o(i.jpeg_out_func_fill) refers to piclib.o(.bss) for picinfo
    tjpgd.o(i.jpeg_out_func_point) refers to piclib.o(i.is_element_ok) for is_element_ok
    tjpgd.o(i.jpeg_out_func_point) refers to piclib.o(.bss) for picinfo
    tjpgd.o(i.jpg_decode) refers to tjpgd.o(i.jpeg_mallocall) for jpeg_mallocall
    tjpgd.o(i.jpg_decode) refers to ff.o(i.f_open) for f_open
    tjpgd.o(i.jpg_decode) refers to tjpgd.o(i.jd_prepare) for jd_prepare
    tjpgd.o(i.jpg_decode) refers to piclib.o(i.ai_draw_init) for ai_draw_init
    tjpgd.o(i.jpg_decode) refers to tjpgd.o(i.jd_decomp) for jd_decomp
    tjpgd.o(i.jpg_decode) refers to ff.o(i.f_close) for f_close
    tjpgd.o(i.jpg_decode) refers to tjpgd.o(i.jpeg_freeall) for jpeg_freeall
    tjpgd.o(i.jpg_decode) refers to tjpgd.o(.data) for f_jpeg
    tjpgd.o(i.jpg_decode) refers to tjpgd.o(i.jpeg_in_func) for jpeg_in_func
    tjpgd.o(i.jpg_decode) refers to tjpgd.o(i.jpeg_out_func_point) for jpeg_out_func_point
    tjpgd.o(i.jpg_decode) refers to piclib.o(.bss) for picinfo
    tjpgd.o(i.jpg_decode) refers to tjpgd.o(i.jpeg_out_func_fill) for jpeg_out_func_fill
    tjpgd.o(i.mcu_load) refers to tjpgd.o(i.huffext) for huffext
    tjpgd.o(i.mcu_load) refers to tjpgd.o(i.bitext) for bitext
    tjpgd.o(i.mcu_load) refers to tjpgd.o(i.block_idct) for block_idct
    tjpgd.o(i.mcu_load) refers to tjpgd.o(.constdata) for Zig
    tjpgd.o(i.mcu_output) refers to tjpgd.o(.constdata) for Clip8
    malloc.o(i.my_mem_free) refers to malloc.o(.data) for malloc_cortol
    malloc.o(i.my_mem_free) refers to malloc.o(.constdata) for memsize
    malloc.o(i.my_mem_init) refers to malloc.o(i.my_mem_set) for my_mem_set
    malloc.o(i.my_mem_init) refers to malloc.o(.constdata) for memtblsize
    malloc.o(i.my_mem_init) refers to malloc.o(.data) for malloc_cortol
    malloc.o(i.my_mem_malloc) refers to malloc.o(.data) for malloc_cortol
    malloc.o(i.my_mem_malloc) refers to malloc.o(.constdata) for memblksize
    malloc.o(i.my_mem_perused) refers to malloc.o(.data) for malloc_cortol
    malloc.o(i.my_mem_perused) refers to malloc.o(.constdata) for memtblsize
    malloc.o(i.myfree) refers to malloc.o(i.my_mem_free) for my_mem_free
    malloc.o(i.myfree) refers to malloc.o(.data) for malloc_cortol
    malloc.o(i.mymalloc) refers to malloc.o(i.my_mem_malloc) for my_mem_malloc
    malloc.o(i.mymalloc) refers to malloc.o(.data) for malloc_cortol
    malloc.o(i.myrealloc) refers to malloc.o(i.my_mem_malloc) for my_mem_malloc
    malloc.o(i.myrealloc) refers to malloc.o(i.my_mem_cpy) for my_mem_cpy
    malloc.o(i.myrealloc) refers to malloc.o(i.myfree) for myfree
    malloc.o(i.myrealloc) refers to malloc.o(.data) for malloc_cortol
    malloc.o(.data) refers to malloc.o(i.my_mem_init) for my_mem_init
    malloc.o(.data) refers to malloc.o(i.my_mem_perused) for my_mem_perused
    malloc.o(.data) refers to malloc.o(.bss) for mem1base
    malloc.o(.data) refers to malloc.o(.ARM.__AT_0x68000000) for mem2base
    malloc.o(.data) refers to malloc.o(.ARM.__AT_0x680F0000) for mem2mapbase
    color.o(i.Corrode) refers to color.o(i.ReadColor) for ReadColor
    color.o(i.Corrode) refers to color.o(i.RGB2HSL) for RGB2HSL
    color.o(i.Corrode) refers to color.o(i.ColorMatch) for ColorMatch
    color.o(i.ReadColor) refers to tftlcd.o(i.LCD_ReadPoint) for LCD_ReadPoint
    color.o(i.SearchCenter) refers to color.o(i.ReadColor) for ReadColor
    color.o(i.SearchCenter) refers to color.o(i.RGB2HSL) for RGB2HSL
    color.o(i.SearchCenter) refers to color.o(i.ColorMatch) for ColorMatch
    color.o(i.Trace) refers to color.o(i.SearchCenter) for SearchCenter
    color.o(i.Trace) refers to color.o(i.Corrode) for Corrode
    color.o(i.Trace) refers to color.o(.data) for area
    discern.o(i.CameraDiscern) refers to discern.o(i.CameraScan) for CameraScan
    discern.o(i.CameraDiscern) refers to algo.o(i.ChangePoint_Analysis_Blue) for ChangePoint_Analysis_Blue
    discern.o(i.CameraDiscern) refers to systick.o(i.delay_ms) for delay_ms
    discern.o(i.CameraDiscern) refers to algo.o(i.ChangePoint_Analysis_320) for ChangePoint_Analysis_320
    discern.o(i.CameraDiscern) refers to algo.o(i.ChangePoint_Show_320) for ChangePoint_Show_320
    discern.o(i.CameraDiscern) refers to algo.o(i.SegmentationChar) for SegmentationChar
    discern.o(i.CameraDiscern) refers to algo.o(i.CharacterRecognition) for CharacterRecognition
    discern.o(i.CameraDiscern) refers to tftlcd.o(i.LCD_Clear) for LCD_Clear
    discern.o(i.CameraDiscern) refers to tftlcd.o(i.LCD_ShowChar) for LCD_ShowChar
    discern.o(i.CameraDiscern) refers to value.o(.data) for flag_MaxMinCompare
    discern.o(i.CameraScan) refers to discern.o(i.camera_refresh) for camera_refresh
    discern.o(i.camera_refresh) refers to tftlcd.o(i.LCD_Display_Dir) for LCD_Display_Dir
    discern.o(i.camera_refresh) refers to tftlcd.o(i.LCD_Set_Window) for LCD_Set_Window
    discern.o(i.camera_refresh) refers to stm32f10x_gpio.o(i.GPIO_ResetBits) for GPIO_ResetBits
    discern.o(i.camera_refresh) refers to stm32f10x_gpio.o(i.GPIO_SetBits) for GPIO_SetBits
    discern.o(i.camera_refresh) refers to tftlcd.o(i.LCD_WriteData_Color) for LCD_WriteData_Color
    discern.o(i.camera_refresh) refers to value.o(.data) for Min_blue
    discern.o(i.camera_refresh) refers to value.o(.bss) for TableChangePoint_240
    discern.o(i.camera_refresh) refers to exti.o(.data) for ov_sta
    discern.o(i.camera_refresh) refers to tftlcd.o(.data) for tftlcd_data
    discern.o(i.camera_refresh) refers to time.o(.data) for ov_frame
    algo.o(i.ChangePoint_Analysis_240) refers to tftlcd.o(i.LCD_DrawPoint) for LCD_DrawPoint
    algo.o(i.ChangePoint_Analysis_240) refers to value.o(.data) for Min_ChangePoint_240
    algo.o(i.ChangePoint_Analysis_240) refers to value.o(.bss) for TableChangePoint_240
    algo.o(i.ChangePoint_Analysis_240) refers to tftlcd.o(.data) for FRONT_COLOR
    algo.o(i.ChangePoint_Analysis_320) refers to tftlcd.o(i.LCD_ReadPoint) for LCD_ReadPoint
    algo.o(i.ChangePoint_Analysis_320) refers to tftlcd.o(i.LCD_DrawPoint) for LCD_DrawPoint
    algo.o(i.ChangePoint_Analysis_320) refers to value.o(.data) for Min_ChangePoint_240
    algo.o(i.ChangePoint_Analysis_320) refers to value.o(.bss) for TableChangePoint_320
    algo.o(i.ChangePoint_Analysis_320) refers to tftlcd.o(.data) for FRONT_COLOR
    algo.o(i.ChangePoint_Analysis_Blue) refers to tftlcd.o(i.LCD_ReadPoint) for LCD_ReadPoint
    algo.o(i.ChangePoint_Analysis_Blue) refers to algo.o(i.RGB_HSV) for RGB_HSV
    algo.o(i.ChangePoint_Analysis_Blue) refers to cfrcmple.o(.text) for __aeabi_cfrcmple
    algo.o(i.ChangePoint_Analysis_Blue) refers to tftlcd.o(i.LCD_DrawPoint) for LCD_DrawPoint
    algo.o(i.ChangePoint_Analysis_Blue) refers to value.o(.data) for Min_blue
    algo.o(i.ChangePoint_Analysis_Blue) refers to tftlcd.o(.data) for FRONT_COLOR
    algo.o(i.ChangePoint_Show_240) refers to tftlcd.o(i.LCD_DrawPoint) for LCD_DrawPoint
    algo.o(i.ChangePoint_Show_240) refers to tftlcd.o(.data) for FRONT_COLOR
    algo.o(i.ChangePoint_Show_240) refers to value.o(.bss) for TableChangePoint_240
    algo.o(i.ChangePoint_Show_320) refers to tftlcd.o(i.LCD_DrawPoint) for LCD_DrawPoint
    algo.o(i.ChangePoint_Show_320) refers to tftlcd.o(.data) for FRONT_COLOR
    algo.o(i.ChangePoint_Show_320) refers to value.o(.bss) for TableChangePoint_320
    algo.o(i.CharacterRecognition) refers to printf8.o(i.__0printf$8) for __2printf
    algo.o(i.CharacterRecognition) refers to tftlcd.o(i.LCD_DrawPoint) for LCD_DrawPoint
    algo.o(i.CharacterRecognition) refers to algo.o(i.Normalized) for Normalized
    algo.o(i.CharacterRecognition) refers to algo.o(i.Picture_String) for Picture_String
    algo.o(i.CharacterRecognition) refers to algo.o(i.MoShiShiBie_All) for MoShiShiBie_All
    algo.o(i.CharacterRecognition) refers to tftlcd.o(i.LCD_ShowNum) for LCD_ShowNum
    algo.o(i.CharacterRecognition) refers to value.o(.data) for Max_blue
    algo.o(i.CharacterRecognition) refers to value.o(.bss) for TableChangePoint_320
    algo.o(i.CharacterRecognition) refers to tftlcd.o(.data) for FRONT_COLOR
    algo.o(i.CharacterRecognition) refers to tftlcd.o(i.LCD_ShowChar) for LCD_ShowChar
    algo.o(i.CharacterRecognition) refers to algo.o(i.WordShow) for WordShow
    algo.o(i.LCD_ShowNumPoint) refers to tftlcd.o(i.LCD_ShowChar) for LCD_ShowChar
    algo.o(i.MoShiShiBie_All) refers to tftlcd.o(i.LCD_ShowNum) for LCD_ShowNum
    algo.o(i.MoShiShiBie_All) refers to value.o(.bss) for table_picture
    algo.o(i.MoShiShiBie_All) refers to string.o(.data) for Table
    algo.o(i.Normalized) refers to tftlcd.o(i.LCD_ReadPoint) for LCD_ReadPoint
    algo.o(i.Normalized) refers to tftlcd.o(i.LCD_DrawPoint) for LCD_DrawPoint
    algo.o(i.Normalized) refers to value.o(.data) for Min_ChangePoint_240
    algo.o(i.Normalized) refers to tftlcd.o(.data) for FRONT_COLOR
    algo.o(i.Picture_String) refers to tftlcd.o(i.LCD_ReadPoint) for LCD_ReadPoint
    algo.o(i.Picture_String) refers to value.o(.bss) for table_picture
    algo.o(i.RGB_HSV) refers to ffltui.o(.text) for __aeabi_ui2f
    algo.o(i.RGB_HSV) refers to cfrcmple.o(.text) for __aeabi_cfrcmple
    algo.o(i.RGB_HSV) refers to cfcmple.o(.text) for __aeabi_cfcmple
    algo.o(i.RGB_HSV) refers to fmul.o(.text) for __aeabi_fmul
    algo.o(i.RGB_HSV) refers to fdiv.o(.text) for __aeabi_fdiv
    algo.o(i.RGB_HSV) refers to fadd.o(.text) for __aeabi_fsub
    algo.o(i.RGB_HSV) refers to fflti.o(.text) for __aeabi_i2f
    algo.o(i.RGB_HSV) refers to value.o(.data) for V
    algo.o(i.SegmentationChar) refers to tftlcd.o(i.LCD_DrawFRONT_COLOR) for LCD_DrawFRONT_COLOR
    algo.o(i.SegmentationChar) refers to tftlcd.o(i.LCD_ShowNum) for LCD_ShowNum
    algo.o(i.SegmentationChar) refers to printf8.o(i.__0printf$8) for __2printf
    algo.o(i.SegmentationChar) refers to value.o(.data) for Max_blue
    algo.o(i.SegmentationChar) refers to value.o(.bss) for TableChangePoint_320
    algo.o(i.Show_Card) refers to algo.o(i.WordShow) for WordShow
    algo.o(i.Show_Card) refers to tftlcd.o(i.LCD_ShowNum) for LCD_ShowNum
    algo.o(i.Show_Card) refers to tftlcd.o(i.LCD_ShowChar) for LCD_ShowChar
    algo.o(i.Show_Card) refers to algo.o(i.LCD_ShowNumPoint) for LCD_ShowNumPoint
    algo.o(i.Show_Card) refers to value.o(.bss) for table_card
    algo.o(i.Show_Card) refers to value.o(.data) for table_char
    algo.o(i.WordShow) refers to tftlcd.o(i.LCD_DrawPoint) for LCD_DrawPoint
    algo.o(i.WordShow) refers to string.o(.data) for table_yu
    algo.o(i.WordShow) refers to tftlcd.o(.data) for FRONT_COLOR
    entry.o(.ARM.Collect$$$$00000000) refers (Special) to entry10a.o(.ARM.Collect$$$$0000000D) for __rt_final_cpp
    entry.o(.ARM.Collect$$$$00000000) refers (Special) to entry11a.o(.ARM.Collect$$$$0000000F) for __rt_final_exit
    entry.o(.ARM.Collect$$$$00000000) refers (Special) to entry7b.o(.ARM.Collect$$$$00000008) for _main_clock
    entry.o(.ARM.Collect$$$$00000000) refers (Special) to entry8b.o(.ARM.Collect$$$$0000000A) for _main_cpp_init
    entry.o(.ARM.Collect$$$$00000000) refers (Special) to entry9a.o(.ARM.Collect$$$$0000000B) for _main_init
    entry.o(.ARM.Collect$$$$00000000) refers (Special) to entry5.o(.ARM.Collect$$$$00000004) for _main_scatterload
    entry.o(.ARM.Collect$$$$00000000) refers (Special) to entry2.o(.ARM.Collect$$$$00000001) for _main_stk
    printfb.o(i.__0fprintf$bare) refers to printfb.o(i._printf_core) for _printf_core
    printfb.o(i.__0fprintf$bare) refers to usart.o(i.fputc) for fputc
    printfb.o(i.__0printf$bare) refers to printfb.o(i._printf_core) for _printf_core
    printfb.o(i.__0printf$bare) refers to usart.o(i.fputc) for fputc
    printfb.o(i.__0printf$bare) refers to stdout.o(.data) for __stdout
    printfb.o(i.__0snprintf$bare) refers to printfb.o(i._printf_core) for _printf_core
    printfb.o(i.__0snprintf$bare) refers to printfb.o(i._snputc) for _snputc
    printfb.o(i.__0sprintf$bare) refers to printfb.o(i._printf_core) for _printf_core
    printfb.o(i.__0sprintf$bare) refers to printfb.o(i._sputc) for _sputc
    printfb.o(i.__0vfprintf$bare) refers to printfb.o(i._printf_core) for _printf_core
    printfb.o(i.__0vfprintf$bare) refers to usart.o(i.fputc) for fputc
    printfb.o(i.__0vprintf$bare) refers to printfb.o(i._printf_core) for _printf_core
    printfb.o(i.__0vprintf$bare) refers to usart.o(i.fputc) for fputc
    printfb.o(i.__0vprintf$bare) refers to stdout.o(.data) for __stdout
    printfb.o(i.__0vsnprintf$bare) refers to printfb.o(i._printf_core) for _printf_core
    printfb.o(i.__0vsnprintf$bare) refers to printfb.o(i._snputc) for _snputc
    printfb.o(i.__0vsprintf$bare) refers to printfb.o(i._printf_core) for _printf_core
    printfb.o(i.__0vsprintf$bare) refers to printfb.o(i._sputc) for _sputc
    printf0.o(i.__0fprintf$0) refers to printf0.o(i._printf_core) for _printf_core
    printf0.o(i.__0fprintf$0) refers to usart.o(i.fputc) for fputc
    printf0.o(i.__0printf$0) refers to printf0.o(i._printf_core) for _printf_core
    printf0.o(i.__0printf$0) refers to usart.o(i.fputc) for fputc
    printf0.o(i.__0printf$0) refers to stdout.o(.data) for __stdout
    printf0.o(i.__0snprintf$0) refers to printf0.o(i._printf_core) for _printf_core
    printf0.o(i.__0snprintf$0) refers to printf0.o(i._snputc) for _snputc
    printf0.o(i.__0sprintf$0) refers to printf0.o(i._printf_core) for _printf_core
    printf0.o(i.__0sprintf$0) refers to printf0.o(i._sputc) for _sputc
    printf0.o(i.__0vfprintf$0) refers to printf0.o(i._printf_core) for _printf_core
    printf0.o(i.__0vfprintf$0) refers to usart.o(i.fputc) for fputc
    printf0.o(i.__0vprintf$0) refers to printf0.o(i._printf_core) for _printf_core
    printf0.o(i.__0vprintf$0) refers to usart.o(i.fputc) for fputc
    printf0.o(i.__0vprintf$0) refers to stdout.o(.data) for __stdout
    printf0.o(i.__0vsnprintf$0) refers to printf0.o(i._printf_core) for _printf_core
    printf0.o(i.__0vsnprintf$0) refers to printf0.o(i._snputc) for _snputc
    printf0.o(i.__0vsprintf$0) refers to printf0.o(i._printf_core) for _printf_core
    printf0.o(i.__0vsprintf$0) refers to printf0.o(i._sputc) for _sputc
    printf1.o(i.__0fprintf$1) refers to printf1.o(i._printf_core) for _printf_core
    printf1.o(i.__0fprintf$1) refers to usart.o(i.fputc) for fputc
    printf1.o(i.__0printf$1) refers to printf1.o(i._printf_core) for _printf_core
    printf1.o(i.__0printf$1) refers to usart.o(i.fputc) for fputc
    printf1.o(i.__0printf$1) refers to stdout.o(.data) for __stdout
    printf1.o(i.__0snprintf$1) refers to printf1.o(i._printf_core) for _printf_core
    printf1.o(i.__0snprintf$1) refers to printf1.o(i._snputc) for _snputc
    printf1.o(i.__0sprintf$1) refers to printf1.o(i._printf_core) for _printf_core
    printf1.o(i.__0sprintf$1) refers to printf1.o(i._sputc) for _sputc
    printf1.o(i.__0vfprintf$1) refers to printf1.o(i._printf_core) for _printf_core
    printf1.o(i.__0vfprintf$1) refers to usart.o(i.fputc) for fputc
    printf1.o(i.__0vprintf$1) refers to printf1.o(i._printf_core) for _printf_core
    printf1.o(i.__0vprintf$1) refers to usart.o(i.fputc) for fputc
    printf1.o(i.__0vprintf$1) refers to stdout.o(.data) for __stdout
    printf1.o(i.__0vsnprintf$1) refers to printf1.o(i._printf_core) for _printf_core
    printf1.o(i.__0vsnprintf$1) refers to printf1.o(i._snputc) for _snputc
    printf1.o(i.__0vsprintf$1) refers to printf1.o(i._printf_core) for _printf_core
    printf1.o(i.__0vsprintf$1) refers to printf1.o(i._sputc) for _sputc
    printf1.o(i._printf_core) refers to uidiv.o(.text) for __aeabi_uidivmod
    printf2.o(i.__0fprintf$2) refers to printf2.o(i._printf_core) for _printf_core
    printf2.o(i.__0fprintf$2) refers to usart.o(i.fputc) for fputc
    printf2.o(i.__0printf$2) refers to printf2.o(i._printf_core) for _printf_core
    printf2.o(i.__0printf$2) refers to usart.o(i.fputc) for fputc
    printf2.o(i.__0printf$2) refers to stdout.o(.data) for __stdout
    printf2.o(i.__0snprintf$2) refers to printf2.o(i._printf_core) for _printf_core
    printf2.o(i.__0snprintf$2) refers to printf2.o(i._snputc) for _snputc
    printf2.o(i.__0sprintf$2) refers to printf2.o(i._printf_core) for _printf_core
    printf2.o(i.__0sprintf$2) refers to printf2.o(i._sputc) for _sputc
    printf2.o(i.__0vfprintf$2) refers to printf2.o(i._printf_core) for _printf_core
    printf2.o(i.__0vfprintf$2) refers to usart.o(i.fputc) for fputc
    printf2.o(i.__0vprintf$2) refers to printf2.o(i._printf_core) for _printf_core
    printf2.o(i.__0vprintf$2) refers to usart.o(i.fputc) for fputc
    printf2.o(i.__0vprintf$2) refers to stdout.o(.data) for __stdout
    printf2.o(i.__0vsnprintf$2) refers to printf2.o(i._printf_core) for _printf_core
    printf2.o(i.__0vsnprintf$2) refers to printf2.o(i._snputc) for _snputc
    printf2.o(i.__0vsprintf$2) refers to printf2.o(i._printf_core) for _printf_core
    printf2.o(i.__0vsprintf$2) refers to printf2.o(i._sputc) for _sputc
    printf3.o(i.__0fprintf$3) refers to printf3.o(i._printf_core) for _printf_core
    printf3.o(i.__0fprintf$3) refers to usart.o(i.fputc) for fputc
    printf3.o(i.__0printf$3) refers to printf3.o(i._printf_core) for _printf_core
    printf3.o(i.__0printf$3) refers to usart.o(i.fputc) for fputc
    printf3.o(i.__0printf$3) refers to stdout.o(.data) for __stdout
    printf3.o(i.__0snprintf$3) refers to printf3.o(i._printf_core) for _printf_core
    printf3.o(i.__0snprintf$3) refers to printf3.o(i._snputc) for _snputc
    printf3.o(i.__0sprintf$3) refers to printf3.o(i._printf_core) for _printf_core
    printf3.o(i.__0sprintf$3) refers to printf3.o(i._sputc) for _sputc
    printf3.o(i.__0vfprintf$3) refers to printf3.o(i._printf_core) for _printf_core
    printf3.o(i.__0vfprintf$3) refers to usart.o(i.fputc) for fputc
    printf3.o(i.__0vprintf$3) refers to printf3.o(i._printf_core) for _printf_core
    printf3.o(i.__0vprintf$3) refers to usart.o(i.fputc) for fputc
    printf3.o(i.__0vprintf$3) refers to stdout.o(.data) for __stdout
    printf3.o(i.__0vsnprintf$3) refers to printf3.o(i._printf_core) for _printf_core
    printf3.o(i.__0vsnprintf$3) refers to printf3.o(i._snputc) for _snputc
    printf3.o(i.__0vsprintf$3) refers to printf3.o(i._printf_core) for _printf_core
    printf3.o(i.__0vsprintf$3) refers to printf3.o(i._sputc) for _sputc
    printf3.o(i._printf_core) refers to uidiv.o(.text) for __aeabi_uidivmod
    printf4.o(i.__0fprintf$4) refers to printf4.o(i._printf_core) for _printf_core
    printf4.o(i.__0fprintf$4) refers to usart.o(i.fputc) for fputc
    printf4.o(i.__0printf$4) refers to printf4.o(i._printf_core) for _printf_core
    printf4.o(i.__0printf$4) refers to usart.o(i.fputc) for fputc
    printf4.o(i.__0printf$4) refers to stdout.o(.data) for __stdout
    printf4.o(i.__0snprintf$4) refers to printf4.o(i._printf_core) for _printf_core
    printf4.o(i.__0snprintf$4) refers to printf4.o(i._snputc) for _snputc
    printf4.o(i.__0sprintf$4) refers to printf4.o(i._printf_core) for _printf_core
    printf4.o(i.__0sprintf$4) refers to printf4.o(i._sputc) for _sputc
    printf4.o(i.__0vfprintf$4) refers to printf4.o(i._printf_core) for _printf_core
    printf4.o(i.__0vfprintf$4) refers to usart.o(i.fputc) for fputc
    printf4.o(i.__0vprintf$4) refers to printf4.o(i._printf_core) for _printf_core
    printf4.o(i.__0vprintf$4) refers to usart.o(i.fputc) for fputc
    printf4.o(i.__0vprintf$4) refers to stdout.o(.data) for __stdout
    printf4.o(i.__0vsnprintf$4) refers to printf4.o(i._printf_core) for _printf_core
    printf4.o(i.__0vsnprintf$4) refers to printf4.o(i._snputc) for _snputc
    printf4.o(i.__0vsprintf$4) refers to printf4.o(i._printf_core) for _printf_core
    printf4.o(i.__0vsprintf$4) refers to printf4.o(i._sputc) for _sputc
    printf4.o(i._printf_core) refers to uldiv.o(.text) for __aeabi_uldivmod
    printf5.o(i.__0fprintf$5) refers to printf5.o(i._printf_core) for _printf_core
    printf5.o(i.__0fprintf$5) refers to usart.o(i.fputc) for fputc
    printf5.o(i.__0printf$5) refers to printf5.o(i._printf_core) for _printf_core
    printf5.o(i.__0printf$5) refers to usart.o(i.fputc) for fputc
    printf5.o(i.__0printf$5) refers to stdout.o(.data) for __stdout
    printf5.o(i.__0snprintf$5) refers to printf5.o(i._printf_core) for _printf_core
    printf5.o(i.__0snprintf$5) refers to printf5.o(i._snputc) for _snputc
    printf5.o(i.__0sprintf$5) refers to printf5.o(i._printf_core) for _printf_core
    printf5.o(i.__0sprintf$5) refers to printf5.o(i._sputc) for _sputc
    printf5.o(i.__0vfprintf$5) refers to printf5.o(i._printf_core) for _printf_core
    printf5.o(i.__0vfprintf$5) refers to usart.o(i.fputc) for fputc
    printf5.o(i.__0vprintf$5) refers to printf5.o(i._printf_core) for _printf_core
    printf5.o(i.__0vprintf$5) refers to usart.o(i.fputc) for fputc
    printf5.o(i.__0vprintf$5) refers to stdout.o(.data) for __stdout
    printf5.o(i.__0vsnprintf$5) refers to printf5.o(i._printf_core) for _printf_core
    printf5.o(i.__0vsnprintf$5) refers to printf5.o(i._snputc) for _snputc
    printf5.o(i.__0vsprintf$5) refers to printf5.o(i._printf_core) for _printf_core
    printf5.o(i.__0vsprintf$5) refers to printf5.o(i._sputc) for _sputc
    printf5.o(i._printf_core) refers to uldiv.o(.text) for __aeabi_uldivmod
    printf6.o(i.__0fprintf$6) refers to printf6.o(i._printf_core) for _printf_core
    printf6.o(i.__0fprintf$6) refers to usart.o(i.fputc) for fputc
    printf6.o(i.__0printf$6) refers to printf6.o(i._printf_core) for _printf_core
    printf6.o(i.__0printf$6) refers to usart.o(i.fputc) for fputc
    printf6.o(i.__0printf$6) refers to stdout.o(.data) for __stdout
    printf6.o(i.__0snprintf$6) refers to printf6.o(i._printf_core) for _printf_core
    printf6.o(i.__0snprintf$6) refers to printf6.o(i._snputc) for _snputc
    printf6.o(i.__0sprintf$6) refers to printf6.o(i._printf_core) for _printf_core
    printf6.o(i.__0sprintf$6) refers to printf6.o(i._sputc) for _sputc
    printf6.o(i.__0vfprintf$6) refers to printf6.o(i._printf_core) for _printf_core
    printf6.o(i.__0vfprintf$6) refers to usart.o(i.fputc) for fputc
    printf6.o(i.__0vprintf$6) refers to printf6.o(i._printf_core) for _printf_core
    printf6.o(i.__0vprintf$6) refers to usart.o(i.fputc) for fputc
    printf6.o(i.__0vprintf$6) refers to stdout.o(.data) for __stdout
    printf6.o(i.__0vsnprintf$6) refers to printf6.o(i._printf_core) for _printf_core
    printf6.o(i.__0vsnprintf$6) refers to printf6.o(i._snputc) for _snputc
    printf6.o(i.__0vsprintf$6) refers to printf6.o(i._printf_core) for _printf_core
    printf6.o(i.__0vsprintf$6) refers to printf6.o(i._sputc) for _sputc
    printf6.o(i._printf_core) refers to printf6.o(i._printf_pre_padding) for _printf_pre_padding
    printf6.o(i._printf_core) refers to uidiv.o(.text) for __aeabi_uidivmod
    printf6.o(i._printf_core) refers to printf6.o(i._printf_post_padding) for _printf_post_padding
    printf7.o(i.__0fprintf$7) refers to printf7.o(i._printf_core) for _printf_core
    printf7.o(i.__0fprintf$7) refers to usart.o(i.fputc) for fputc
    printf7.o(i.__0printf$7) refers to printf7.o(i._printf_core) for _printf_core
    printf7.o(i.__0printf$7) refers to usart.o(i.fputc) for fputc
    printf7.o(i.__0printf$7) refers to stdout.o(.data) for __stdout
    printf7.o(i.__0snprintf$7) refers to printf7.o(i._printf_core) for _printf_core
    printf7.o(i.__0snprintf$7) refers to printf7.o(i._snputc) for _snputc
    printf7.o(i.__0sprintf$7) refers to printf7.o(i._printf_core) for _printf_core
    printf7.o(i.__0sprintf$7) refers to printf7.o(i._sputc) for _sputc
    printf7.o(i.__0vfprintf$7) refers to printf7.o(i._printf_core) for _printf_core
    printf7.o(i.__0vfprintf$7) refers to usart.o(i.fputc) for fputc
    printf7.o(i.__0vprintf$7) refers to printf7.o(i._printf_core) for _printf_core
    printf7.o(i.__0vprintf$7) refers to usart.o(i.fputc) for fputc
    printf7.o(i.__0vprintf$7) refers to stdout.o(.data) for __stdout
    printf7.o(i.__0vsnprintf$7) refers to printf7.o(i._printf_core) for _printf_core
    printf7.o(i.__0vsnprintf$7) refers to printf7.o(i._snputc) for _snputc
    printf7.o(i.__0vsprintf$7) refers to printf7.o(i._printf_core) for _printf_core
    printf7.o(i.__0vsprintf$7) refers to printf7.o(i._sputc) for _sputc
    printf7.o(i._printf_core) refers to printf7.o(i._printf_pre_padding) for _printf_pre_padding
    printf7.o(i._printf_core) refers to uldiv.o(.text) for __aeabi_uldivmod
    printf7.o(i._printf_core) refers to printf7.o(i._printf_post_padding) for _printf_post_padding
    printf8.o(i.__0fprintf$8) refers to printf8.o(i._printf_core) for _printf_core
    printf8.o(i.__0fprintf$8) refers to usart.o(i.fputc) for fputc
    printf8.o(i.__0printf$8) refers to printf8.o(i._printf_core) for _printf_core
    printf8.o(i.__0printf$8) refers to usart.o(i.fputc) for fputc
    printf8.o(i.__0printf$8) refers to stdout.o(.data) for __stdout
    printf8.o(i.__0snprintf$8) refers to printf8.o(i._printf_core) for _printf_core
    printf8.o(i.__0snprintf$8) refers to printf8.o(i._snputc) for _snputc
    printf8.o(i.__0sprintf$8) refers to printf8.o(i._printf_core) for _printf_core
    printf8.o(i.__0sprintf$8) refers to printf8.o(i._sputc) for _sputc
    printf8.o(i.__0vfprintf$8) refers to printf8.o(i._printf_core) for _printf_core
    printf8.o(i.__0vfprintf$8) refers to usart.o(i.fputc) for fputc
    printf8.o(i.__0vprintf$8) refers to printf8.o(i._printf_core) for _printf_core
    printf8.o(i.__0vprintf$8) refers to usart.o(i.fputc) for fputc
    printf8.o(i.__0vprintf$8) refers to stdout.o(.data) for __stdout
    printf8.o(i.__0vsnprintf$8) refers to printf8.o(i._printf_core) for _printf_core
    printf8.o(i.__0vsnprintf$8) refers to printf8.o(i._snputc) for _snputc
    printf8.o(i.__0vsprintf$8) refers to printf8.o(i._printf_core) for _printf_core
    printf8.o(i.__0vsprintf$8) refers to printf8.o(i._sputc) for _sputc
    printf8.o(i._printf_core) refers to printf8.o(i._printf_pre_padding) for _printf_pre_padding
    printf8.o(i._printf_core) refers to uldiv.o(.text) for __aeabi_uldivmod
    printf8.o(i._printf_core) refers to printf8.o(i._printf_post_padding) for _printf_post_padding
    printfa.o(i.__0fprintf) refers (Special) to iusefp.o(.text) for __I$use$fp
    printfa.o(i.__0fprintf) refers to printfa.o(i._printf_core) for _printf_core
    printfa.o(i.__0fprintf) refers to usart.o(i.fputc) for fputc
    printfa.o(i.__0printf) refers (Special) to iusefp.o(.text) for __I$use$fp
    printfa.o(i.__0printf) refers to printfa.o(i._printf_core) for _printf_core
    printfa.o(i.__0printf) refers to usart.o(i.fputc) for fputc
    printfa.o(i.__0printf) refers to stdout.o(.data) for __stdout
    printfa.o(i.__0snprintf) refers (Special) to iusefp.o(.text) for __I$use$fp
    printfa.o(i.__0snprintf) refers to printfa.o(i._printf_core) for _printf_core
    printfa.o(i.__0snprintf) refers to printfa.o(i._snputc) for _snputc
    printfa.o(i.__0sprintf) refers (Special) to iusefp.o(.text) for __I$use$fp
    printfa.o(i.__0sprintf) refers to printfa.o(i._printf_core) for _printf_core
    printfa.o(i.__0sprintf) refers to printfa.o(i._sputc) for _sputc
    printfa.o(i.__0vfprintf) refers (Special) to iusefp.o(.text) for __I$use$fp
    printfa.o(i.__0vfprintf) refers to printfa.o(i._printf_core) for _printf_core
    printfa.o(i.__0vfprintf) refers to usart.o(i.fputc) for fputc
    printfa.o(i.__0vprintf) refers (Special) to iusefp.o(.text) for __I$use$fp
    printfa.o(i.__0vprintf) refers to printfa.o(i._printf_core) for _printf_core
    printfa.o(i.__0vprintf) refers to usart.o(i.fputc) for fputc
    printfa.o(i.__0vprintf) refers to stdout.o(.data) for __stdout
    printfa.o(i.__0vsnprintf) refers (Special) to iusefp.o(.text) for __I$use$fp
    printfa.o(i.__0vsnprintf) refers to printfa.o(i._printf_core) for _printf_core
    printfa.o(i.__0vsnprintf) refers to printfa.o(i._snputc) for _snputc
    printfa.o(i.__0vsprintf) refers (Special) to iusefp.o(.text) for __I$use$fp
    printfa.o(i.__0vsprintf) refers to printfa.o(i._printf_core) for _printf_core
    printfa.o(i.__0vsprintf) refers to printfa.o(i._sputc) for _sputc
    printfa.o(i._fp_digits) refers (Special) to iusefp.o(.text) for __I$use$fp
    printfa.o(i._fp_digits) refers to dmul.o(.text) for __aeabi_dmul
    printfa.o(i._fp_digits) refers to ddiv.o(.text) for __aeabi_ddiv
    printfa.o(i._fp_digits) refers to cdrcmple.o(.text) for __aeabi_cdrcmple
    printfa.o(i._fp_digits) refers to dadd.o(.text) for __aeabi_dadd
    printfa.o(i._fp_digits) refers to dfixul.o(.text) for __aeabi_d2ulz
    printfa.o(i._fp_digits) refers to uldiv.o(.text) for __aeabi_uldivmod
    printfa.o(i._printf_core) refers (Special) to iusefp.o(.text) for __I$use$fp
    printfa.o(i._printf_core) refers to printfa.o(i._printf_pre_padding) for _printf_pre_padding
    printfa.o(i._printf_core) refers to uldiv.o(.text) for __aeabi_uldivmod
    printfa.o(i._printf_core) refers to printfa.o(i._printf_post_padding) for _printf_post_padding
    printfa.o(i._printf_core) refers to printfa.o(i._fp_digits) for _fp_digits
    printfa.o(i._printf_core) refers to uidiv.o(.text) for __aeabi_uidivmod
    printfa.o(i._printf_post_padding) refers (Special) to iusefp.o(.text) for __I$use$fp
    printfa.o(i._printf_pre_padding) refers (Special) to iusefp.o(.text) for __I$use$fp
    printfa.o(i._snputc) refers (Special) to iusefp.o(.text) for __I$use$fp
    printfa.o(i._sputc) refers (Special) to iusefp.o(.text) for __I$use$fp
    fadd.o(.text) refers (Special) to iusefp.o(.text) for __I$use$fp
    fadd.o(.text) refers to fepilogue.o(.text) for _float_epilogue
    fmul.o(.text) refers (Special) to iusefp.o(.text) for __I$use$fp
    fdiv.o(.text) refers (Special) to iusefp.o(.text) for __I$use$fp
    fdiv.o(.text) refers to fepilogue.o(.text) for _float_round
    fflti.o(.text) refers (Special) to iusefp.o(.text) for __I$use$fp
    fflti.o(.text) refers to fepilogue.o(.text) for _float_epilogue
    ffltui.o(.text) refers (Special) to iusefp.o(.text) for __I$use$fp
    ffltui.o(.text) refers to fepilogue.o(.text) for _float_epilogue
    ffixui.o(.text) refers (Special) to iusefp.o(.text) for __I$use$fp
    cfcmple.o(.text) refers (Special) to iusefp.o(.text) for __I$use$fp
    cfrcmple.o(.text) refers (Special) to iusefp.o(.text) for __I$use$fp
    entry2.o(.ARM.Collect$$$$00000001) refers to entry2.o(.ARM.Collect$$$$00002712) for __lit__00000000
    entry2.o(.ARM.Collect$$$$00002712) refers to startup_stm32f10x_hd.o(STACK) for __initial_sp
    entry2.o(__vectab_stack_and_reset_area) refers to startup_stm32f10x_hd.o(STACK) for __initial_sp
    entry2.o(__vectab_stack_and_reset_area) refers to entry.o(.ARM.Collect$$$$00000000) for __main
    entry5.o(.ARM.Collect$$$$00000004) refers to init.o(.text) for __scatterload
    entry9a.o(.ARM.Collect$$$$0000000B) refers to main.o(i.main) for main
    entry9b.o(.ARM.Collect$$$$0000000C) refers to main.o(i.main) for main
    uldiv.o(.text) refers to llushr.o(.text) for __aeabi_llsr
    uldiv.o(.text) refers to llshl.o(.text) for __aeabi_llsl
    dadd.o(.text) refers to llshl.o(.text) for __aeabi_llsl
    dadd.o(.text) refers to llsshr.o(.text) for __aeabi_lasr
    dadd.o(.text) refers to depilogue.o(.text) for _double_epilogue
    dmul.o(.text) refers to depilogue.o(.text) for _double_epilogue
    ddiv.o(.text) refers to depilogue.o(.text) for _double_round
    dfixul.o(.text) refers to llushr.o(.text) for __aeabi_llsr
    dfixul.o(.text) refers to llshl.o(.text) for __aeabi_llsl
    init.o(.text) refers to entry5.o(.ARM.Collect$$$$00000004) for __main_after_scatterload
    depilogue.o(.text) refers to llshl.o(.text) for __aeabi_llsl
    depilogue.o(.text) refers to llushr.o(.text) for __aeabi_llsr


==============================================================================

Removing Unused input sections from the image.

    Removing startup_stm32f10x_hd.o(HEAP), (512 bytes).
    Removing stm32f10x_gpio.o(i.GPIO_AFIODeInit), (20 bytes).
    Removing stm32f10x_gpio.o(i.GPIO_DeInit), (200 bytes).
    Removing stm32f10x_gpio.o(i.GPIO_ETH_MediaInterfaceConfig), (12 bytes).
    Removing stm32f10x_gpio.o(i.GPIO_EventOutputCmd), (12 bytes).
    Removing stm32f10x_gpio.o(i.GPIO_EventOutputConfig), (32 bytes).
    Removing stm32f10x_gpio.o(i.GPIO_PinLockConfig), (18 bytes).
    Removing stm32f10x_gpio.o(i.GPIO_PinRemapConfig), (144 bytes).
    Removing stm32f10x_gpio.o(i.GPIO_ReadInputData), (8 bytes).
    Removing stm32f10x_gpio.o(i.GPIO_ReadInputDataBit), (18 bytes).
    Removing stm32f10x_gpio.o(i.GPIO_ReadOutputData), (8 bytes).
    Removing stm32f10x_gpio.o(i.GPIO_ReadOutputDataBit), (18 bytes).
    Removing stm32f10x_gpio.o(i.GPIO_StructInit), (16 bytes).
    Removing stm32f10x_gpio.o(i.GPIO_Write), (4 bytes).
    Removing stm32f10x_gpio.o(i.GPIO_WriteBit), (10 bytes).
    Removing stm32f10x_rcc.o(i.RCC_ADCCLKConfig), (24 bytes).
    Removing stm32f10x_rcc.o(i.RCC_APB1PeriphResetCmd), (32 bytes).
    Removing stm32f10x_rcc.o(i.RCC_APB2PeriphResetCmd), (32 bytes).
    Removing stm32f10x_rcc.o(i.RCC_AdjustHSICalibrationValue), (24 bytes).
    Removing stm32f10x_rcc.o(i.RCC_BackupResetCmd), (12 bytes).
    Removing stm32f10x_rcc.o(i.RCC_ClearFlag), (20 bytes).
    Removing stm32f10x_rcc.o(i.RCC_ClearITPendingBit), (12 bytes).
    Removing stm32f10x_rcc.o(i.RCC_ClockSecuritySystemCmd), (12 bytes).
    Removing stm32f10x_rcc.o(i.RCC_DeInit), (76 bytes).
    Removing stm32f10x_rcc.o(i.RCC_GetFlagStatus), (60 bytes).
    Removing stm32f10x_rcc.o(i.RCC_GetITStatus), (24 bytes).
    Removing stm32f10x_rcc.o(i.RCC_GetSYSCLKSource), (16 bytes).
    Removing stm32f10x_rcc.o(i.RCC_HCLKConfig), (24 bytes).
    Removing stm32f10x_rcc.o(i.RCC_HSEConfig), (76 bytes).
    Removing stm32f10x_rcc.o(i.RCC_HSICmd), (12 bytes).
    Removing stm32f10x_rcc.o(i.RCC_ITConfig), (32 bytes).
    Removing stm32f10x_rcc.o(i.RCC_LSEConfig), (52 bytes).
    Removing stm32f10x_rcc.o(i.RCC_LSICmd), (12 bytes).
    Removing stm32f10x_rcc.o(i.RCC_MCOConfig), (12 bytes).
    Removing stm32f10x_rcc.o(i.RCC_PCLK1Config), (24 bytes).
    Removing stm32f10x_rcc.o(i.RCC_PCLK2Config), (24 bytes).
    Removing stm32f10x_rcc.o(i.RCC_PLLCmd), (12 bytes).
    Removing stm32f10x_rcc.o(i.RCC_PLLConfig), (28 bytes).
    Removing stm32f10x_rcc.o(i.RCC_RTCCLKCmd), (12 bytes).
    Removing stm32f10x_rcc.o(i.RCC_RTCCLKConfig), (16 bytes).
    Removing stm32f10x_rcc.o(i.RCC_SYSCLKConfig), (24 bytes).
    Removing stm32f10x_rcc.o(i.RCC_USBCLKConfig), (12 bytes).
    Removing stm32f10x_rcc.o(i.RCC_WaitForHSEStartUp), (56 bytes).
    Removing misc.o(i.NVIC_SetVectorTable), (20 bytes).
    Removing misc.o(i.NVIC_SystemLPConfig), (32 bytes).
    Removing stm32f10x_exti.o(i.EXTI_ClearFlag), (12 bytes).
    Removing stm32f10x_exti.o(i.EXTI_DeInit), (36 bytes).
    Removing stm32f10x_exti.o(i.EXTI_GenerateSWInterrupt), (16 bytes).
    Removing stm32f10x_exti.o(i.EXTI_GetFlagStatus), (24 bytes).
    Removing stm32f10x_exti.o(i.EXTI_StructInit), (16 bytes).
    Removing stm32f10x_tim.o(i.TI1_Config), (128 bytes).
    Removing stm32f10x_tim.o(i.TI2_Config), (152 bytes).
    Removing stm32f10x_tim.o(i.TI3_Config), (144 bytes).
    Removing stm32f10x_tim.o(i.TI4_Config), (152 bytes).
    Removing stm32f10x_tim.o(i.TIM_ARRPreloadConfig), (24 bytes).
    Removing stm32f10x_tim.o(i.TIM_BDTRConfig), (32 bytes).
    Removing stm32f10x_tim.o(i.TIM_BDTRStructInit), (18 bytes).
    Removing stm32f10x_tim.o(i.TIM_CCPreloadControl), (24 bytes).
    Removing stm32f10x_tim.o(i.TIM_CCxCmd), (30 bytes).
    Removing stm32f10x_tim.o(i.TIM_CCxNCmd), (30 bytes).
    Removing stm32f10x_tim.o(i.TIM_ClearFlag), (6 bytes).
    Removing stm32f10x_tim.o(i.TIM_ClearOC1Ref), (18 bytes).
    Removing stm32f10x_tim.o(i.TIM_ClearOC2Ref), (24 bytes).
    Removing stm32f10x_tim.o(i.TIM_ClearOC3Ref), (18 bytes).
    Removing stm32f10x_tim.o(i.TIM_ClearOC4Ref), (24 bytes).
    Removing stm32f10x_tim.o(i.TIM_CounterModeConfig), (18 bytes).
    Removing stm32f10x_tim.o(i.TIM_CtrlPWMOutputs), (30 bytes).
    Removing stm32f10x_tim.o(i.TIM_DMACmd), (18 bytes).
    Removing stm32f10x_tim.o(i.TIM_DMAConfig), (10 bytes).
    Removing stm32f10x_tim.o(i.TIM_DeInit), (488 bytes).
    Removing stm32f10x_tim.o(i.TIM_ETRClockMode1Config), (54 bytes).
    Removing stm32f10x_tim.o(i.TIM_ETRClockMode2Config), (32 bytes).
    Removing stm32f10x_tim.o(i.TIM_ETRConfig), (28 bytes).
    Removing stm32f10x_tim.o(i.TIM_EncoderInterfaceConfig), (66 bytes).
    Removing stm32f10x_tim.o(i.TIM_ForcedOC1Config), (18 bytes).
    Removing stm32f10x_tim.o(i.TIM_ForcedOC2Config), (26 bytes).
    Removing stm32f10x_tim.o(i.TIM_ForcedOC3Config), (18 bytes).
    Removing stm32f10x_tim.o(i.TIM_ForcedOC4Config), (26 bytes).
    Removing stm32f10x_tim.o(i.TIM_GenerateEvent), (4 bytes).
    Removing stm32f10x_tim.o(i.TIM_GetCapture1), (6 bytes).
    Removing stm32f10x_tim.o(i.TIM_GetCapture2), (6 bytes).
    Removing stm32f10x_tim.o(i.TIM_GetCapture3), (6 bytes).
    Removing stm32f10x_tim.o(i.TIM_GetCapture4), (8 bytes).
    Removing stm32f10x_tim.o(i.TIM_GetCounter), (6 bytes).
    Removing stm32f10x_tim.o(i.TIM_GetFlagStatus), (18 bytes).
    Removing stm32f10x_tim.o(i.TIM_GetPrescaler), (6 bytes).
    Removing stm32f10x_tim.o(i.TIM_ICInit), (172 bytes).
    Removing stm32f10x_tim.o(i.TIM_ICStructInit), (18 bytes).
    Removing stm32f10x_tim.o(i.TIM_ITRxExternalClockConfig), (24 bytes).
    Removing stm32f10x_tim.o(i.TIM_InternalClockConfig), (12 bytes).
    Removing stm32f10x_tim.o(i.TIM_OC1FastConfig), (18 bytes).
    Removing stm32f10x_tim.o(i.TIM_OC1Init), (152 bytes).
    Removing stm32f10x_tim.o(i.TIM_OC1NPolarityConfig), (18 bytes).
    Removing stm32f10x_tim.o(i.TIM_OC1PolarityConfig), (18 bytes).
    Removing stm32f10x_tim.o(i.TIM_OC1PreloadConfig), (18 bytes).
    Removing stm32f10x_tim.o(i.TIM_OC2FastConfig), (26 bytes).
    Removing stm32f10x_tim.o(i.TIM_OC2Init), (164 bytes).
    Removing stm32f10x_tim.o(i.TIM_OC2NPolarityConfig), (26 bytes).
    Removing stm32f10x_tim.o(i.TIM_OC2PolarityConfig), (26 bytes).
    Removing stm32f10x_tim.o(i.TIM_OC2PreloadConfig), (26 bytes).
    Removing stm32f10x_tim.o(i.TIM_OC3FastConfig), (18 bytes).
    Removing stm32f10x_tim.o(i.TIM_OC3Init), (160 bytes).
    Removing stm32f10x_tim.o(i.TIM_OC3NPolarityConfig), (26 bytes).
    Removing stm32f10x_tim.o(i.TIM_OC3PolarityConfig), (26 bytes).
    Removing stm32f10x_tim.o(i.TIM_OC3PreloadConfig), (18 bytes).
    Removing stm32f10x_tim.o(i.TIM_OC4FastConfig), (26 bytes).
    Removing stm32f10x_tim.o(i.TIM_OC4Init), (124 bytes).
    Removing stm32f10x_tim.o(i.TIM_OC4PolarityConfig), (26 bytes).
    Removing stm32f10x_tim.o(i.TIM_OC4PreloadConfig), (26 bytes).
    Removing stm32f10x_tim.o(i.TIM_OCStructInit), (20 bytes).
    Removing stm32f10x_tim.o(i.TIM_PWMIConfig), (124 bytes).
    Removing stm32f10x_tim.o(i.TIM_PrescalerConfig), (6 bytes).
    Removing stm32f10x_tim.o(i.TIM_SelectCCDMA), (24 bytes).
    Removing stm32f10x_tim.o(i.TIM_SelectCOM), (24 bytes).
    Removing stm32f10x_tim.o(i.TIM_SelectHallSensor), (24 bytes).
    Removing stm32f10x_tim.o(i.TIM_SelectInputTrigger), (18 bytes).
    Removing stm32f10x_tim.o(i.TIM_SelectMasterSlaveMode), (18 bytes).
    Removing stm32f10x_tim.o(i.TIM_SelectOCxM), (82 bytes).
    Removing stm32f10x_tim.o(i.TIM_SelectOnePulseMode), (18 bytes).
    Removing stm32f10x_tim.o(i.TIM_SelectOutputTrigger), (18 bytes).
    Removing stm32f10x_tim.o(i.TIM_SelectSlaveMode), (18 bytes).
    Removing stm32f10x_tim.o(i.TIM_SetAutoreload), (4 bytes).
    Removing stm32f10x_tim.o(i.TIM_SetClockDivision), (18 bytes).
    Removing stm32f10x_tim.o(i.TIM_SetCompare1), (4 bytes).
    Removing stm32f10x_tim.o(i.TIM_SetCompare2), (4 bytes).
    Removing stm32f10x_tim.o(i.TIM_SetCompare3), (4 bytes).
    Removing stm32f10x_tim.o(i.TIM_SetCompare4), (6 bytes).
    Removing stm32f10x_tim.o(i.TIM_SetCounter), (4 bytes).
    Removing stm32f10x_tim.o(i.TIM_SetIC1Prescaler), (18 bytes).
    Removing stm32f10x_tim.o(i.TIM_SetIC2Prescaler), (26 bytes).
    Removing stm32f10x_tim.o(i.TIM_SetIC3Prescaler), (18 bytes).
    Removing stm32f10x_tim.o(i.TIM_SetIC4Prescaler), (26 bytes).
    Removing stm32f10x_tim.o(i.TIM_TIxExternalClockConfig), (62 bytes).
    Removing stm32f10x_tim.o(i.TIM_TimeBaseStructInit), (18 bytes).
    Removing stm32f10x_tim.o(i.TIM_UpdateDisableConfig), (24 bytes).
    Removing stm32f10x_tim.o(i.TIM_UpdateRequestConfig), (24 bytes).
    Removing stm32f10x_usart.o(i.USART_ClearITPendingBit), (30 bytes).
    Removing stm32f10x_usart.o(i.USART_ClockInit), (34 bytes).
    Removing stm32f10x_usart.o(i.USART_ClockStructInit), (12 bytes).
    Removing stm32f10x_usart.o(i.USART_DMACmd), (18 bytes).
    Removing stm32f10x_usart.o(i.USART_DeInit), (156 bytes).
    Removing stm32f10x_usart.o(i.USART_HalfDuplexCmd), (24 bytes).
    Removing stm32f10x_usart.o(i.USART_IrDACmd), (24 bytes).
    Removing stm32f10x_usart.o(i.USART_IrDAConfig), (18 bytes).
    Removing stm32f10x_usart.o(i.USART_LINBreakDetectLengthConfig), (18 bytes).
    Removing stm32f10x_usart.o(i.USART_LINCmd), (24 bytes).
    Removing stm32f10x_usart.o(i.USART_OneBitMethodCmd), (24 bytes).
    Removing stm32f10x_usart.o(i.USART_OverSampling8Cmd), (22 bytes).
    Removing stm32f10x_usart.o(i.USART_ReceiverWakeUpCmd), (24 bytes).
    Removing stm32f10x_usart.o(i.USART_SendBreak), (10 bytes).
    Removing stm32f10x_usart.o(i.USART_SetAddress), (18 bytes).
    Removing stm32f10x_usart.o(i.USART_SetGuardTime), (16 bytes).
    Removing stm32f10x_usart.o(i.USART_SetPrescaler), (16 bytes).
    Removing stm32f10x_usart.o(i.USART_SmartCardCmd), (24 bytes).
    Removing stm32f10x_usart.o(i.USART_SmartCardNACKCmd), (24 bytes).
    Removing stm32f10x_usart.o(i.USART_StructInit), (24 bytes).
    Removing stm32f10x_usart.o(i.USART_WakeUpConfig), (18 bytes).
    Removing stm32f10x_iwdg.o(i.IWDG_Enable), (16 bytes).
    Removing stm32f10x_iwdg.o(i.IWDG_GetFlagStatus), (24 bytes).
    Removing stm32f10x_iwdg.o(i.IWDG_ReloadCounter), (16 bytes).
    Removing stm32f10x_iwdg.o(i.IWDG_SetPrescaler), (12 bytes).
    Removing stm32f10x_iwdg.o(i.IWDG_SetReload), (12 bytes).
    Removing stm32f10x_iwdg.o(i.IWDG_WriteAccessCmd), (12 bytes).
    Removing stm32f10x_wwdg.o(i.WWDG_ClearFlag), (12 bytes).
    Removing stm32f10x_wwdg.o(i.WWDG_DeInit), (22 bytes).
    Removing stm32f10x_wwdg.o(i.WWDG_Enable), (16 bytes).
    Removing stm32f10x_wwdg.o(i.WWDG_EnableIT), (12 bytes).
    Removing stm32f10x_wwdg.o(i.WWDG_GetFlagStatus), (12 bytes).
    Removing stm32f10x_wwdg.o(i.WWDG_SetCounter), (16 bytes).
    Removing stm32f10x_wwdg.o(i.WWDG_SetPrescaler), (24 bytes).
    Removing stm32f10x_wwdg.o(i.WWDG_SetWindowValue), (40 bytes).
    Removing stm32f10x_bkp.o(i.BKP_ClearFlag), (20 bytes).
    Removing stm32f10x_bkp.o(i.BKP_ClearITPendingBit), (20 bytes).
    Removing stm32f10x_bkp.o(i.BKP_DeInit), (16 bytes).
    Removing stm32f10x_bkp.o(i.BKP_GetFlagStatus), (12 bytes).
    Removing stm32f10x_bkp.o(i.BKP_GetITStatus), (12 bytes).
    Removing stm32f10x_bkp.o(i.BKP_ITConfig), (12 bytes).
    Removing stm32f10x_bkp.o(i.BKP_RTCOutputConfig), (28 bytes).
    Removing stm32f10x_bkp.o(i.BKP_ReadBackupRegister), (28 bytes).
    Removing stm32f10x_bkp.o(i.BKP_SetRTCCalibrationValue), (28 bytes).
    Removing stm32f10x_bkp.o(i.BKP_TamperPinCmd), (12 bytes).
    Removing stm32f10x_bkp.o(i.BKP_TamperPinLevelConfig), (12 bytes).
    Removing stm32f10x_bkp.o(i.BKP_WriteBackupRegister), (28 bytes).
    Removing stm32f10x_pwr.o(i.PWR_BackupAccessCmd), (12 bytes).
    Removing stm32f10x_pwr.o(i.PWR_ClearFlag), (20 bytes).
    Removing stm32f10x_pwr.o(i.PWR_DeInit), (22 bytes).
    Removing stm32f10x_pwr.o(i.PWR_EnterSTANDBYMode), (52 bytes).
    Removing stm32f10x_pwr.o(i.PWR_EnterSTOPMode), (64 bytes).
    Removing stm32f10x_pwr.o(i.PWR_GetFlagStatus), (24 bytes).
    Removing stm32f10x_pwr.o(i.PWR_PVDCmd), (12 bytes).
    Removing stm32f10x_pwr.o(i.PWR_PVDLevelConfig), (24 bytes).
    Removing stm32f10x_pwr.o(i.PWR_WakeUpPinCmd), (12 bytes).
    Removing stm32f10x_adc.o(i.ADC_AnalogWatchdogCmd), (20 bytes).
    Removing stm32f10x_adc.o(i.ADC_AnalogWatchdogSingleChannelConfig), (16 bytes).
    Removing stm32f10x_adc.o(i.ADC_AnalogWatchdogThresholdsConfig), (6 bytes).
    Removing stm32f10x_adc.o(i.ADC_AutoInjectedConvCmd), (22 bytes).
    Removing stm32f10x_adc.o(i.ADC_ClearFlag), (6 bytes).
    Removing stm32f10x_adc.o(i.ADC_ClearITPendingBit), (10 bytes).
    Removing stm32f10x_adc.o(i.ADC_Cmd), (22 bytes).
    Removing stm32f10x_adc.o(i.ADC_DMACmd), (22 bytes).
    Removing stm32f10x_adc.o(i.ADC_DeInit), (92 bytes).
    Removing stm32f10x_adc.o(i.ADC_DiscModeChannelCountConfig), (24 bytes).
    Removing stm32f10x_adc.o(i.ADC_DiscModeCmd), (22 bytes).
    Removing stm32f10x_adc.o(i.ADC_ExternalTrigConvCmd), (22 bytes).
    Removing stm32f10x_adc.o(i.ADC_ExternalTrigInjectedConvCmd), (22 bytes).
    Removing stm32f10x_adc.o(i.ADC_ExternalTrigInjectedConvConfig), (16 bytes).
    Removing stm32f10x_adc.o(i.ADC_GetCalibrationStatus), (20 bytes).
    Removing stm32f10x_adc.o(i.ADC_GetConversionValue), (8 bytes).
    Removing stm32f10x_adc.o(i.ADC_GetDualModeConversionValue), (12 bytes).
    Removing stm32f10x_adc.o(i.ADC_GetFlagStatus), (18 bytes).
    Removing stm32f10x_adc.o(i.ADC_GetITStatus), (36 bytes).
    Removing stm32f10x_adc.o(i.ADC_GetInjectedConversionValue), (28 bytes).
    Removing stm32f10x_adc.o(i.ADC_GetResetCalibrationStatus), (20 bytes).
    Removing stm32f10x_adc.o(i.ADC_GetSoftwareStartConvStatus), (20 bytes).
    Removing stm32f10x_adc.o(i.ADC_GetSoftwareStartInjectedConvCmdStatus), (20 bytes).
    Removing stm32f10x_adc.o(i.ADC_ITConfig), (24 bytes).
    Removing stm32f10x_adc.o(i.ADC_Init), (80 bytes).
    Removing stm32f10x_adc.o(i.ADC_InjectedChannelConfig), (130 bytes).
    Removing stm32f10x_adc.o(i.ADC_InjectedDiscModeCmd), (22 bytes).
    Removing stm32f10x_adc.o(i.ADC_InjectedSequencerLengthConfig), (24 bytes).
    Removing stm32f10x_adc.o(i.ADC_RegularChannelConfig), (184 bytes).
    Removing stm32f10x_adc.o(i.ADC_ResetCalibration), (10 bytes).
    Removing stm32f10x_adc.o(i.ADC_SetInjectedOffset), (20 bytes).
    Removing stm32f10x_adc.o(i.ADC_SoftwareStartConvCmd), (22 bytes).
    Removing stm32f10x_adc.o(i.ADC_SoftwareStartInjectedConvCmd), (22 bytes).
    Removing stm32f10x_adc.o(i.ADC_StartCalibration), (10 bytes).
    Removing stm32f10x_adc.o(i.ADC_StructInit), (18 bytes).
    Removing stm32f10x_adc.o(i.ADC_TempSensorVrefintCmd), (36 bytes).
    Removing stm32f10x_dac.o(i.DAC_Cmd), (40 bytes).
    Removing stm32f10x_dac.o(i.DAC_DMACmd), (44 bytes).
    Removing stm32f10x_dac.o(i.DAC_DeInit), (22 bytes).
    Removing stm32f10x_dac.o(i.DAC_DualSoftwareTriggerCmd), (36 bytes).
    Removing stm32f10x_dac.o(i.DAC_GetDataOutputValue), (36 bytes).
    Removing stm32f10x_dac.o(i.DAC_Init), (52 bytes).
    Removing stm32f10x_dac.o(i.DAC_SetChannel1Data), (32 bytes).
    Removing stm32f10x_dac.o(i.DAC_SetChannel2Data), (32 bytes).
    Removing stm32f10x_dac.o(i.DAC_SetDualChannelData), (36 bytes).
    Removing stm32f10x_dac.o(i.DAC_SoftwareTriggerCmd), (44 bytes).
    Removing stm32f10x_dac.o(i.DAC_StructInit), (12 bytes).
    Removing stm32f10x_dac.o(i.DAC_WaveGenerationCmd), (40 bytes).
    Removing stm32f10x_dma.o(i.DMA_ClearFlag), (28 bytes).
    Removing stm32f10x_dma.o(i.DMA_ClearITPendingBit), (28 bytes).
    Removing stm32f10x_dma.o(i.DMA_Cmd), (24 bytes).
    Removing stm32f10x_dma.o(i.DMA_DeInit), (332 bytes).
    Removing stm32f10x_dma.o(i.DMA_GetCurrDataCounter), (8 bytes).
    Removing stm32f10x_dma.o(i.DMA_GetFlagStatus), (44 bytes).
    Removing stm32f10x_dma.o(i.DMA_GetITStatus), (44 bytes).
    Removing stm32f10x_dma.o(i.DMA_ITConfig), (18 bytes).
    Removing stm32f10x_dma.o(i.DMA_Init), (60 bytes).
    Removing stm32f10x_dma.o(i.DMA_SetCurrDataCounter), (4 bytes).
    Removing stm32f10x_dma.o(i.DMA_StructInit), (26 bytes).
    Removing stm32f10x_rtc.o(i.RTC_ClearFlag), (16 bytes).
    Removing stm32f10x_rtc.o(i.RTC_ClearITPendingBit), (16 bytes).
    Removing stm32f10x_rtc.o(i.RTC_EnterConfigMode), (20 bytes).
    Removing stm32f10x_rtc.o(i.RTC_ExitConfigMode), (20 bytes).
    Removing stm32f10x_rtc.o(i.RTC_GetCounter), (20 bytes).
    Removing stm32f10x_rtc.o(i.RTC_GetDivider), (24 bytes).
    Removing stm32f10x_rtc.o(i.RTC_GetFlagStatus), (24 bytes).
    Removing stm32f10x_rtc.o(i.RTC_GetITStatus), (36 bytes).
    Removing stm32f10x_rtc.o(i.RTC_ITConfig), (32 bytes).
    Removing stm32f10x_rtc.o(i.RTC_SetAlarm), (28 bytes).
    Removing stm32f10x_rtc.o(i.RTC_SetCounter), (28 bytes).
    Removing stm32f10x_rtc.o(i.RTC_SetPrescaler), (32 bytes).
    Removing stm32f10x_rtc.o(i.RTC_WaitForLastTask), (20 bytes).
    Removing stm32f10x_rtc.o(i.RTC_WaitForSynchro), (36 bytes).
    Removing stm32f10x_can.o(i.CAN_CancelTransmit), (48 bytes).
    Removing stm32f10x_can.o(i.CAN_ClearFlag), (56 bytes).
    Removing stm32f10x_can.o(i.CAN_ClearITPendingBit), (168 bytes).
    Removing stm32f10x_can.o(i.CAN_DBGFreeze), (22 bytes).
    Removing stm32f10x_can.o(i.CAN_DeInit), (56 bytes).
    Removing stm32f10x_can.o(i.CAN_FIFORelease), (22 bytes).
    Removing stm32f10x_can.o(i.CAN_FilterInit), (264 bytes).
    Removing stm32f10x_can.o(i.CAN_GetFlagStatus), (120 bytes).
    Removing stm32f10x_can.o(i.CAN_GetITStatus), (288 bytes).
    Removing stm32f10x_can.o(i.CAN_GetLSBTransmitErrorCounter), (12 bytes).
    Removing stm32f10x_can.o(i.CAN_GetLastErrorCode), (12 bytes).
    Removing stm32f10x_can.o(i.CAN_GetReceiveErrorCounter), (10 bytes).
    Removing stm32f10x_can.o(i.CAN_ITConfig), (18 bytes).
    Removing stm32f10x_can.o(i.CAN_Init), (276 bytes).
    Removing stm32f10x_can.o(i.CAN_MessagePending), (30 bytes).
    Removing stm32f10x_can.o(i.CAN_OperatingModeRequest), (162 bytes).
    Removing stm32f10x_can.o(i.CAN_Receive), (240 bytes).
    Removing stm32f10x_can.o(i.CAN_SlaveStartBank), (52 bytes).
    Removing stm32f10x_can.o(i.CAN_Sleep), (30 bytes).
    Removing stm32f10x_can.o(i.CAN_StructInit), (32 bytes).
    Removing stm32f10x_can.o(i.CAN_TTComModeCmd), (118 bytes).
    Removing stm32f10x_can.o(i.CAN_Transmit), (294 bytes).
    Removing stm32f10x_can.o(i.CAN_TransmitStatus), (160 bytes).
    Removing stm32f10x_can.o(i.CAN_WakeUp), (48 bytes).
    Removing stm32f10x_can.o(i.CheckITStatus), (18 bytes).
    Removing stm32f10x_fsmc.o(i.FSMC_ClearFlag), (64 bytes).
    Removing stm32f10x_fsmc.o(i.FSMC_ClearITPendingBit), (72 bytes).
    Removing stm32f10x_fsmc.o(i.FSMC_GetECC), (28 bytes).
    Removing stm32f10x_fsmc.o(i.FSMC_GetFlagStatus), (56 bytes).
    Removing stm32f10x_fsmc.o(i.FSMC_GetITStatus), (68 bytes).
    Removing stm32f10x_fsmc.o(i.FSMC_ITConfig), (128 bytes).
    Removing stm32f10x_fsmc.o(i.FSMC_NANDCmd), (92 bytes).
    Removing stm32f10x_fsmc.o(i.FSMC_NANDDeInit), (68 bytes).
    Removing stm32f10x_fsmc.o(i.FSMC_NANDECCCmd), (92 bytes).
    Removing stm32f10x_fsmc.o(i.FSMC_NANDInit), (136 bytes).
    Removing stm32f10x_fsmc.o(i.FSMC_NANDStructInit), (54 bytes).
    Removing stm32f10x_fsmc.o(i.FSMC_NORSRAMDeInit), (54 bytes).
    Removing stm32f10x_fsmc.o(i.FSMC_NORSRAMStructInit), (114 bytes).
    Removing stm32f10x_fsmc.o(i.FSMC_PCCARDCmd), (48 bytes).
    Removing stm32f10x_fsmc.o(i.FSMC_PCCARDDeInit), (40 bytes).
    Removing stm32f10x_fsmc.o(i.FSMC_PCCARDInit), (132 bytes).
    Removing stm32f10x_fsmc.o(i.FSMC_PCCARDStructInit), (60 bytes).
    Removing stm32f10x_spi.o(i.I2S_Cmd), (24 bytes).
    Removing stm32f10x_spi.o(i.I2S_Init), (232 bytes).
    Removing stm32f10x_spi.o(i.I2S_StructInit), (20 bytes).
    Removing stm32f10x_spi.o(i.SPI_BiDirectionalLineConfig), (28 bytes).
    Removing stm32f10x_spi.o(i.SPI_CalculateCRC), (24 bytes).
    Removing stm32f10x_spi.o(i.SPI_DataSizeConfig), (18 bytes).
    Removing stm32f10x_spi.o(i.SPI_GetCRC), (16 bytes).
    Removing stm32f10x_spi.o(i.SPI_GetCRCPolynomial), (6 bytes).
    Removing stm32f10x_spi.o(i.SPI_I2S_ClearFlag), (6 bytes).
    Removing stm32f10x_spi.o(i.SPI_I2S_ClearITPendingBit), (20 bytes).
    Removing stm32f10x_spi.o(i.SPI_I2S_DMACmd), (18 bytes).
    Removing stm32f10x_spi.o(i.SPI_I2S_DeInit), (88 bytes).
    Removing stm32f10x_spi.o(i.SPI_I2S_GetITStatus), (52 bytes).
    Removing stm32f10x_spi.o(i.SPI_I2S_ITConfig), (32 bytes).
    Removing stm32f10x_spi.o(i.SPI_NSSInternalSoftwareConfig), (30 bytes).
    Removing stm32f10x_spi.o(i.SPI_SSOutputCmd), (24 bytes).
    Removing stm32f10x_spi.o(i.SPI_StructInit), (24 bytes).
    Removing stm32f10x_spi.o(i.SPI_TransmitCRC), (10 bytes).
    Removing stm32f10x_flash.o(i.FLASH_ClearFlag), (12 bytes).
    Removing stm32f10x_flash.o(i.FLASH_EnableWriteProtection), (196 bytes).
    Removing stm32f10x_flash.o(i.FLASH_EraseAllBank1Pages), (72 bytes).
    Removing stm32f10x_flash.o(i.FLASH_EraseAllPages), (72 bytes).
    Removing stm32f10x_flash.o(i.FLASH_EraseOptionBytes), (168 bytes).
    Removing stm32f10x_flash.o(i.FLASH_ErasePage), (76 bytes).
    Removing stm32f10x_flash.o(i.FLASH_GetBank1Status), (52 bytes).
    Removing stm32f10x_flash.o(i.FLASH_GetFlagStatus), (48 bytes).
    Removing stm32f10x_flash.o(i.FLASH_GetPrefetchBufferStatus), (24 bytes).
    Removing stm32f10x_flash.o(i.FLASH_GetReadOutProtectionStatus), (24 bytes).
    Removing stm32f10x_flash.o(i.FLASH_GetStatus), (52 bytes).
    Removing stm32f10x_flash.o(i.FLASH_GetUserOptionByte), (12 bytes).
    Removing stm32f10x_flash.o(i.FLASH_GetWriteProtectionOptionByte), (12 bytes).
    Removing stm32f10x_flash.o(i.FLASH_HalfCycleAccessCmd), (28 bytes).
    Removing stm32f10x_flash.o(i.FLASH_ITConfig), (32 bytes).
    Removing stm32f10x_flash.o(i.FLASH_Lock), (20 bytes).
    Removing stm32f10x_flash.o(i.FLASH_LockBank1), (20 bytes).
    Removing stm32f10x_flash.o(i.FLASH_PrefetchBufferCmd), (28 bytes).
    Removing stm32f10x_flash.o(i.FLASH_ProgramHalfWord), (64 bytes).
    Removing stm32f10x_flash.o(i.FLASH_ProgramOptionByteData), (84 bytes).
    Removing stm32f10x_flash.o(i.FLASH_ProgramWord), (108 bytes).
    Removing stm32f10x_flash.o(i.FLASH_ReadOutProtection), (172 bytes).
    Removing stm32f10x_flash.o(i.FLASH_SetLatency), (24 bytes).
    Removing stm32f10x_flash.o(i.FLASH_Unlock), (24 bytes).
    Removing stm32f10x_flash.o(i.FLASH_UnlockBank1), (24 bytes).
    Removing stm32f10x_flash.o(i.FLASH_UserOptionByteConfig), (104 bytes).
    Removing stm32f10x_flash.o(i.FLASH_WaitForLastBank1Operation), (38 bytes).
    Removing stm32f10x_flash.o(i.FLASH_WaitForLastOperation), (38 bytes).
    Removing system_stm32f10x.o(i.SystemCoreClockUpdate), (164 bytes).
    Removing system_stm32f10x.o(.data), (20 bytes).
    Removing core_cm3.o(.emb_text), (32 bytes).
    Removing tftlcd.o(i.LCD_DrawLine), (176 bytes).
    Removing tftlcd.o(i.LCD_DrawLine_Color), (172 bytes).
    Removing tftlcd.o(i.LCD_DrawRectangle), (60 bytes).
    Removing tftlcd.o(i.LCD_Draw_Circle), (152 bytes).
    Removing tftlcd.o(i.LCD_DrowSign), (132 bytes).
    Removing tftlcd.o(i.LCD_RGBColor_Change), (28 bytes).
    Removing tftlcd.o(i.LCD_ShowFontHZ), (232 bytes).
    Removing tftlcd.o(i.LCD_ShowPicture), (92 bytes).
    Removing tftlcd.o(i.LCD_ShowxNum), (190 bytes).
    Removing tftlcd.o(i.LCD_WriteCmdData), (20 bytes).
    Removing sd.o(i.SD_GetCID), (42 bytes).
    Removing spi.o(i.SPI1_Init), (136 bytes).
    Removing spi.o(i.SPI1_ReadWriteByte), (56 bytes).
    Removing spi.o(i.SPI1_SetSpeed), (40 bytes).
    Removing flash.o(i.EN25QXX_Erase_Chip), (44 bytes).
    Removing flash.o(i.EN25QXX_PowerDown), (40 bytes).
    Removing flash.o(i.EN25QXX_WAKEUP), (40 bytes).
    Removing flash.o(i.EN25QXX_Write_Disable), (32 bytes).
    Removing flash.o(i.EN25QXX_Write_SR), (40 bytes).
    Removing esp8266_drive.o(i.ESP8266_ExitUnvarnishSend), (36 bytes).
    Removing esp8266_drive.o(i.ESP8266_Get_LinkStatus), (124 bytes).
    Removing esp8266_drive.o(i.ESP8266_Link_Server), (192 bytes).
    Removing esp8266_drive.o(i.ESP8266_ReceiveString), (116 bytes).
    Removing esp8266_drive.o(i.ESP8266_UnvarnishSend), (76 bytes).
    Removing ff.o(i.dir_read), (198 bytes).
    Removing ff.o(i.dir_remove), (106 bytes).
    Removing ff.o(i.f_chmod), (112 bytes).
    Removing ff.o(i.f_closedir), (22 bytes).
    Removing ff.o(i.f_getfree), (258 bytes).
    Removing ff.o(i.f_getlabel), (190 bytes).
    Removing ff.o(i.f_gets), (82 bytes).
    Removing ff.o(i.f_lseek), (684 bytes).
    Removing ff.o(i.f_mkfs), (1608 bytes).
    Removing ff.o(i.f_opendir), (136 bytes).
    Removing ff.o(i.f_printf), (628 bytes).
    Removing ff.o(i.f_putc), (64 bytes).
    Removing ff.o(i.f_puts), (74 bytes).
    Removing ff.o(i.f_readdir), (114 bytes).
    Removing ff.o(i.f_rename), (290 bytes).
    Removing ff.o(i.f_setlabel), (500 bytes).
    Removing ff.o(i.f_stat), (84 bytes).
    Removing ff.o(i.f_truncate), (184 bytes).
    Removing ff.o(i.f_unlink), (190 bytes).
    Removing ff.o(i.f_utime), (110 bytes).
    Removing ff.o(i.get_fileinfo), (272 bytes).
    Removing ff.o(i.pick_lfn), (128 bytes).
    Removing ff.o(i.putc_bfd), (68 bytes).
    Removing fatfs_app.o(i.FATFS_GetFree), (74 bytes).
    Removing fatfs_app.o(i.FATFS_ScanFiles), (180 bytes).
    Removing fatfs_app.o(i.FATFS_ScanFilesType), (176 bytes).
    Removing fatfs_app.o(i.char_upper), (26 bytes).
    Removing fatfs_app.o(.constdata), (112 bytes).
    Removing fatfs_app.o(.conststring), (68 bytes).
    Removing bmp.o(i.minibmp_decode), (976 bytes).
    Removing bmp.o(i.stdbmp_decode), (720 bytes).
    Removing gif.o(i.gif_check_head), (88 bytes).
    Removing gif.o(i.gif_clear2bkcolor), (500 bytes).
    Removing gif.o(i.gif_decode), (300 bytes).
    Removing gif.o(i.gif_dispimage), (552 bytes).
    Removing gif.o(i.gif_drawimage), (340 bytes).
    Removing gif.o(i.gif_getdatablock), (96 bytes).
    Removing gif.o(i.gif_getinfo), (70 bytes).
    Removing gif.o(i.gif_getnextbyte), (856 bytes).
    Removing gif.o(i.gif_getnextcode), (456 bytes).
    Removing gif.o(i.gif_getrgb565), (28 bytes).
    Removing gif.o(i.gif_initlzw), (152 bytes).
    Removing gif.o(i.gif_quit), (12 bytes).
    Removing gif.o(i.gif_readcolortbl), (64 bytes).
    Removing gif.o(i.gif_readextension), (160 bytes).
    Removing gif.o(i.gif_recovergctbl), (38 bytes).
    Removing gif.o(i.gif_savegctbl), (38 bytes).
    Removing gif.o(.constdata), (40 bytes).
    Removing gif.o(.data), (1 bytes).
    Removing piclib.o(i.ai_draw_init), (268 bytes).
    Removing piclib.o(i.ai_load_picfile), (208 bytes).
    Removing piclib.o(i.is_element_ok), (40 bytes).
    Removing piclib.o(i.piclib_alpha_blend), (48 bytes).
    Removing piclib.o(i.piclib_draw_hline), (56 bytes).
    Removing piclib.o(i.piclib_fill_color), (46 bytes).
    Removing piclib.o(i.piclib_init), (92 bytes).
    Removing piclib.o(.bss), (60 bytes).
    Removing tjpgd.o(i.alloc_pool), (30 bytes).
    Removing tjpgd.o(i.bitext), (144 bytes).
    Removing tjpgd.o(i.block_idct), (680 bytes).
    Removing tjpgd.o(i.create_huffman_tbl), (308 bytes).
    Removing tjpgd.o(i.create_qt_tbl), (116 bytes).
    Removing tjpgd.o(i.huffext), (192 bytes).
    Removing tjpgd.o(i.jd_decomp), (162 bytes).
    Removing tjpgd.o(i.jd_prepare), (924 bytes).
    Removing tjpgd.o(i.jpeg_freeall), (40 bytes).
    Removing tjpgd.o(i.jpeg_in_func), (48 bytes).
    Removing tjpgd.o(i.jpeg_mallocall), (84 bytes).
    Removing tjpgd.o(i.jpeg_out_func_fill), (84 bytes).
    Removing tjpgd.o(i.jpeg_out_func_point), (192 bytes).
    Removing tjpgd.o(i.jpg_decode), (260 bytes).
    Removing tjpgd.o(i.mcu_load), (480 bytes).
    Removing tjpgd.o(i.mcu_output), (916 bytes).
    Removing tjpgd.o(i.restart), (112 bytes).
    Removing tjpgd.o(.constdata), (1216 bytes).
    Removing tjpgd.o(.data), (12 bytes).
    Removing malloc.o(i.my_mem_cpy), (26 bytes).
    Removing malloc.o(i.myrealloc), (68 bytes).
    Removing color.o(i.ColorMatch), (132 bytes).
    Removing color.o(i.Corrode), (360 bytes).
    Removing color.o(i.RGB2HSL), (292 bytes).
    Removing color.o(i.ReadColor), (46 bytes).
    Removing color.o(i.SearchCenter), (240 bytes).
    Removing color.o(i.Trace), (216 bytes).
    Removing color.o(.data), (38 bytes).
    Removing algo.o(i.ChangePoint_Analysis_240), (360 bytes).
    Removing algo.o(i.ChangePoint_Show_240), (120 bytes).
    Removing algo.o(i.LCD_ShowNumPoint), (214 bytes).
    Removing algo.o(i.Show_Card), (600 bytes).
    Removing ffixui.o(.text), (40 bytes).
    Removing dadd.o(.text), (334 bytes).
    Removing dmul.o(.text), (228 bytes).
    Removing ddiv.o(.text), (222 bytes).
    Removing dfixul.o(.text), (48 bytes).
    Removing cdrcmple.o(.text), (48 bytes).
    Removing depilogue.o(.text), (186 bytes).

476 unused section(s) (total 40799 bytes) removed from the image.

==============================================================================

Image Symbol Table

    Local Symbols

    Symbol Name                              Value     Ov Type        Size  Object(Section)

    ../clib/../cmprslib/lz77c.c              0x00000000   Number         0  __dclz77c.o ABSOLUTE
    ../clib/microlib/division.c              0x00000000   Number         0  uidiv.o ABSOLUTE
    ../clib/microlib/division.c              0x00000000   Number         0  uldiv.o ABSOLUTE
    ../clib/microlib/init/entry.s            0x00000000   Number         0  entry.o ABSOLUTE
    ../clib/microlib/init/entry.s            0x00000000   Number         0  entry10a.o ABSOLUTE
    ../clib/microlib/init/entry.s            0x00000000   Number         0  entry9b.o ABSOLUTE
    ../clib/microlib/init/entry.s            0x00000000   Number         0  entry9a.o ABSOLUTE
    ../clib/microlib/init/entry.s            0x00000000   Number         0  entry5.o ABSOLUTE
    ../clib/microlib/init/entry.s            0x00000000   Number         0  entry7a.o ABSOLUTE
    ../clib/microlib/init/entry.s            0x00000000   Number         0  entry11b.o ABSOLUTE
    ../clib/microlib/init/entry.s            0x00000000   Number         0  entry7b.o ABSOLUTE
    ../clib/microlib/init/entry.s            0x00000000   Number         0  entry11a.o ABSOLUTE
    ../clib/microlib/init/entry.s            0x00000000   Number         0  entry10b.o ABSOLUTE
    ../clib/microlib/init/entry.s            0x00000000   Number         0  entry8b.o ABSOLUTE
    ../clib/microlib/init/entry.s            0x00000000   Number         0  entry8a.o ABSOLUTE
    ../clib/microlib/init/entry.s            0x00000000   Number         0  entry2.o ABSOLUTE
    ../clib/microlib/longlong.c              0x00000000   Number         0  llshl.o ABSOLUTE
    ../clib/microlib/longlong.c              0x00000000   Number         0  llushr.o ABSOLUTE
    ../clib/microlib/longlong.c              0x00000000   Number         0  llsshr.o ABSOLUTE
    ../clib/microlib/printf/printf.c         0x00000000   Number         0  printfb.o ABSOLUTE
    ../clib/microlib/printf/printf.c         0x00000000   Number         0  printf1.o ABSOLUTE
    ../clib/microlib/printf/printf.c         0x00000000   Number         0  printf2.o ABSOLUTE
    ../clib/microlib/printf/printf.c         0x00000000   Number         0  printf3.o ABSOLUTE
    ../clib/microlib/printf/printf.c         0x00000000   Number         0  printf4.o ABSOLUTE
    ../clib/microlib/printf/printf.c         0x00000000   Number         0  printf5.o ABSOLUTE
    ../clib/microlib/printf/printf.c         0x00000000   Number         0  printf6.o ABSOLUTE
    ../clib/microlib/printf/printf.c         0x00000000   Number         0  printf7.o ABSOLUTE
    ../clib/microlib/printf/printf.c         0x00000000   Number         0  printf0.o ABSOLUTE
    ../clib/microlib/printf/printf.c         0x00000000   Number         0  printf8.o ABSOLUTE
    ../clib/microlib/printf/printf.c         0x00000000   Number         0  printfa.o ABSOLUTE
    ../clib/microlib/printf/stubs.s          0x00000000   Number         0  stubs.o ABSOLUTE
    ../clib/microlib/stdio/streams.c         0x00000000   Number         0  stdout.o ABSOLUTE
    ../clib/microlib/string/memset.c         0x00000000   Number         0  memseta.o ABSOLUTE
    ../clib/microlib/string/strcmp.c         0x00000000   Number         0  strcmp.o ABSOLUTE
    ../clib/microlib/string/strcpy.c         0x00000000   Number         0  strcpy.o ABSOLUTE
    ../clib/microlib/string/strstr.c         0x00000000   Number         0  strstr.o ABSOLUTE
    ../clib/microlib/stubs.s                 0x00000000   Number         0  iusefp.o ABSOLUTE
    ../fplib/microlib/fpadd.c                0x00000000   Number         0  fadd.o ABSOLUTE
    ../fplib/microlib/fpadd.c                0x00000000   Number         0  dadd.o ABSOLUTE
    ../fplib/microlib/fpdiv.c                0x00000000   Number         0  ddiv.o ABSOLUTE
    ../fplib/microlib/fpdiv.c                0x00000000   Number         0  fdiv.o ABSOLUTE
    ../fplib/microlib/fpepilogue.c           0x00000000   Number         0  fepilogue.o ABSOLUTE
    ../fplib/microlib/fpepilogue.c           0x00000000   Number         0  depilogue.o ABSOLUTE
    ../fplib/microlib/fpfix.c                0x00000000   Number         0  ffixui.o ABSOLUTE
    ../fplib/microlib/fpfix.c                0x00000000   Number         0  dfixul.o ABSOLUTE
    ../fplib/microlib/fpflt.c                0x00000000   Number         0  ffltui.o ABSOLUTE
    ../fplib/microlib/fpflt.c                0x00000000   Number         0  fflti.o ABSOLUTE
    ../fplib/microlib/fpmul.c                0x00000000   Number         0  fmul.o ABSOLUTE
    ../fplib/microlib/fpmul.c                0x00000000   Number         0  dmul.o ABSOLUTE
    APP\esp8266\ESP8266_Public\esp8266_public.c 0x00000000   Number         0  esp8266_public.o ABSOLUTE
    APP\esp8266\ESP8266_drive\esp8266_drive.c 0x00000000   Number         0  esp8266_drive.o ABSOLUTE
    APP\exti\exti.c                          0x00000000   Number         0  exti.o ABSOLUTE
    APP\flash\flash.c                        0x00000000   Number         0  flash.o ABSOLUTE
    APP\key\key.c                            0x00000000   Number         0  key.o ABSOLUTE
    APP\led\led.c                            0x00000000   Number         0  led.o ABSOLUTE
    APP\ov7670\ov7670.c                      0x00000000   Number         0  ov7670.o ABSOLUTE
    APP\ov7670\sccb.c                        0x00000000   Number         0  sccb.o ABSOLUTE
    APP\sd\sd.c                              0x00000000   Number         0  sd.o ABSOLUTE
    APP\spi\spi.c                            0x00000000   Number         0  spi.o ABSOLUTE
    APP\tftlcd\tftlcd.c                      0x00000000   Number         0  tftlcd.o ABSOLUTE
    APP\time\time.c                          0x00000000   Number         0  time.o ABSOLUTE
    Color\algo.c                             0x00000000   Number         0  algo.o ABSOLUTE
    Color\color.c                            0x00000000   Number         0  color.o ABSOLUTE
    Color\discern.c                          0x00000000   Number         0  discern.o ABSOLUTE
    Color\string.c                           0x00000000   Number         0  string.o ABSOLUTE
    Color\value.c                            0x00000000   Number         0  value.o ABSOLUTE
    FATFS\FATFS_APP\fatfs_app.c              0x00000000   Number         0  fatfs_app.o ABSOLUTE
    FATFS\diskio.c                           0x00000000   Number         0  diskio.o ABSOLUTE
    FATFS\ff.c                               0x00000000   Number         0  ff.o ABSOLUTE
    FATFS\option\cc936.c                     0x00000000   Number         0  cc936.o ABSOLUTE
    Libraries\CMSIS\core_cm3.c               0x00000000   Number         0  core_cm3.o ABSOLUTE
    Libraries\CMSIS\startup_stm32f10x_hd.s   0x00000000   Number         0  startup_stm32f10x_hd.o ABSOLUTE
    Libraries\CMSIS\system_stm32f10x.c       0x00000000   Number         0  system_stm32f10x.o ABSOLUTE
    Libraries\STM32F10x_StdPeriph_Driver\src\misc.c 0x00000000   Number         0  misc.o ABSOLUTE
    Libraries\STM32F10x_StdPeriph_Driver\src\stm32f10x_adc.c 0x00000000   Number         0  stm32f10x_adc.o ABSOLUTE
    Libraries\STM32F10x_StdPeriph_Driver\src\stm32f10x_bkp.c 0x00000000   Number         0  stm32f10x_bkp.o ABSOLUTE
    Libraries\STM32F10x_StdPeriph_Driver\src\stm32f10x_can.c 0x00000000   Number         0  stm32f10x_can.o ABSOLUTE
    Libraries\STM32F10x_StdPeriph_Driver\src\stm32f10x_dac.c 0x00000000   Number         0  stm32f10x_dac.o ABSOLUTE
    Libraries\STM32F10x_StdPeriph_Driver\src\stm32f10x_dma.c 0x00000000   Number         0  stm32f10x_dma.o ABSOLUTE
    Libraries\STM32F10x_StdPeriph_Driver\src\stm32f10x_exti.c 0x00000000   Number         0  stm32f10x_exti.o ABSOLUTE
    Libraries\STM32F10x_StdPeriph_Driver\src\stm32f10x_flash.c 0x00000000   Number         0  stm32f10x_flash.o ABSOLUTE
    Libraries\STM32F10x_StdPeriph_Driver\src\stm32f10x_fsmc.c 0x00000000   Number         0  stm32f10x_fsmc.o ABSOLUTE
    Libraries\STM32F10x_StdPeriph_Driver\src\stm32f10x_gpio.c 0x00000000   Number         0  stm32f10x_gpio.o ABSOLUTE
    Libraries\STM32F10x_StdPeriph_Driver\src\stm32f10x_iwdg.c 0x00000000   Number         0  stm32f10x_iwdg.o ABSOLUTE
    Libraries\STM32F10x_StdPeriph_Driver\src\stm32f10x_pwr.c 0x00000000   Number         0  stm32f10x_pwr.o ABSOLUTE
    Libraries\STM32F10x_StdPeriph_Driver\src\stm32f10x_rcc.c 0x00000000   Number         0  stm32f10x_rcc.o ABSOLUTE
    Libraries\STM32F10x_StdPeriph_Driver\src\stm32f10x_rtc.c 0x00000000   Number         0  stm32f10x_rtc.o ABSOLUTE
    Libraries\STM32F10x_StdPeriph_Driver\src\stm32f10x_spi.c 0x00000000   Number         0  stm32f10x_spi.o ABSOLUTE
    Libraries\STM32F10x_StdPeriph_Driver\src\stm32f10x_tim.c 0x00000000   Number         0  stm32f10x_tim.o ABSOLUTE
    Libraries\STM32F10x_StdPeriph_Driver\src\stm32f10x_usart.c 0x00000000   Number         0  stm32f10x_usart.o ABSOLUTE
    Libraries\STM32F10x_StdPeriph_Driver\src\stm32f10x_wwdg.c 0x00000000   Number         0  stm32f10x_wwdg.o ABSOLUTE
    Libraries\\CMSIS\\core_cm3.c             0x00000000   Number         0  core_cm3.o ABSOLUTE
    Malloc\malloc.c                          0x00000000   Number         0  malloc.o ABSOLUTE
    PICTURE\bmp.c                            0x00000000   Number         0  bmp.o ABSOLUTE
    PICTURE\gif.c                            0x00000000   Number         0  gif.o ABSOLUTE
    PICTURE\piclib.c                         0x00000000   Number         0  piclib.o ABSOLUTE
    PICTURE\tjpgd.c                          0x00000000   Number         0  tjpgd.o ABSOLUTE
    Public\SysTick.c                         0x00000000   Number         0  systick.o ABSOLUTE
    Public\system.c                          0x00000000   Number         0  system.o ABSOLUTE
    Public\usart.c                           0x00000000   Number         0  usart.o ABSOLUTE
    User\main.c                              0x00000000   Number         0  main.o ABSOLUTE
    User\stm32f10x_it.c                      0x00000000   Number         0  stm32f10x_it.o ABSOLUTE
    cdrcmple.s                               0x00000000   Number         0  cdrcmple.o ABSOLUTE
    cfcmple.s                                0x00000000   Number         0  cfcmple.o ABSOLUTE
    cfrcmple.s                               0x00000000   Number         0  cfrcmple.o ABSOLUTE
    dc.s                                     0x00000000   Number         0  dc.o ABSOLUTE
    handlers.s                               0x00000000   Number         0  handlers.o ABSOLUTE
    init.s                                   0x00000000   Number         0  init.o ABSOLUTE
    RESET                                    0x08000000   Section      304  startup_stm32f10x_hd.o(RESET)
    .ARM.Collect$$$$00000000                 0x08000130   Section        0  entry.o(.ARM.Collect$$$$00000000)
    .ARM.Collect$$$$00000001                 0x08000130   Section        4  entry2.o(.ARM.Collect$$$$00000001)
    .ARM.Collect$$$$00000004                 0x08000134   Section        4  entry5.o(.ARM.Collect$$$$00000004)
    .ARM.Collect$$$$00000008                 0x08000138   Section        0  entry7b.o(.ARM.Collect$$$$00000008)
    .ARM.Collect$$$$0000000A                 0x08000138   Section        0  entry8b.o(.ARM.Collect$$$$0000000A)
    .ARM.Collect$$$$0000000B                 0x08000138   Section        8  entry9a.o(.ARM.Collect$$$$0000000B)
    .ARM.Collect$$$$0000000D                 0x08000140   Section        0  entry10a.o(.ARM.Collect$$$$0000000D)
    .ARM.Collect$$$$0000000F                 0x08000140   Section        0  entry11a.o(.ARM.Collect$$$$0000000F)
    .ARM.Collect$$$$00002712                 0x08000140   Section        4  entry2.o(.ARM.Collect$$$$00002712)
    __lit__00000000                          0x08000140   Data           4  entry2.o(.ARM.Collect$$$$00002712)
    .text                                    0x08000144   Section       36  startup_stm32f10x_hd.o(.text)
    .text                                    0x08000168   Section        0  memseta.o(.text)
    .text                                    0x0800018c   Section        0  strstr.o(.text)
    .text                                    0x080001b0   Section        0  fadd.o(.text)
    .text                                    0x08000260   Section        0  fmul.o(.text)
    .text                                    0x080002c4   Section        0  fdiv.o(.text)
    .text                                    0x08000340   Section        0  fflti.o(.text)
    .text                                    0x08000352   Section        0  ffltui.o(.text)
    .text                                    0x0800035c   Section       20  cfcmple.o(.text)
    .text                                    0x08000370   Section       20  cfrcmple.o(.text)
    .text                                    0x08000384   Section        0  uldiv.o(.text)
    .text                                    0x080003e6   Section        0  fepilogue.o(.text)
    .text                                    0x080003e6   Section        0  iusefp.o(.text)
    .text                                    0x08000454   Section       36  init.o(.text)
    .text                                    0x08000478   Section        0  llshl.o(.text)
    .text                                    0x08000496   Section        0  llushr.o(.text)
    .text                                    0x080004b6   Section        0  __dclz77c.o(.text)
    i.BusFault_Handler                       0x08000514   Section        0  stm32f10x_it.o(i.BusFault_Handler)
    i.CameraDiscern                          0x08000518   Section        0  discern.o(i.CameraDiscern)
    i.CameraScan                             0x080006c8   Section        0  discern.o(i.CameraScan)
    i.ChangePoint_Analysis_320               0x080006d0   Section        0  algo.o(i.ChangePoint_Analysis_320)
    i.ChangePoint_Analysis_Blue              0x08000854   Section        0  algo.o(i.ChangePoint_Analysis_Blue)
    i.ChangePoint_Show_320                   0x08000978   Section        0  algo.o(i.ChangePoint_Show_320)
    i.CharacterRecognition                   0x080009cc   Section        0  algo.o(i.CharacterRecognition)
    i.DebugMon_Handler                       0x080010f0   Section        0  stm32f10x_it.o(i.DebugMon_Handler)
    i.EN25QXX_Erase_Sector                   0x080010f4   Section        0  flash.o(i.EN25QXX_Erase_Sector)
    i.EN25QXX_Init                           0x0800114c   Section        0  flash.o(i.EN25QXX_Init)
    i.EN25QXX_Read                           0x080011fc   Section        0  flash.o(i.EN25QXX_Read)
    i.EN25QXX_ReadID                         0x0800124c   Section        0  flash.o(i.EN25QXX_ReadID)
    i.EN25QXX_ReadSR                         0x08001294   Section        0  flash.o(i.EN25QXX_ReadSR)
    i.EN25QXX_Wait_Busy                      0x080012c0   Section        0  flash.o(i.EN25QXX_Wait_Busy)
    i.EN25QXX_Write                          0x080012d4   Section        0  flash.o(i.EN25QXX_Write)
    i.EN25QXX_Write_Enable                   0x0800138c   Section        0  flash.o(i.EN25QXX_Write_Enable)
    i.EN25QXX_Write_NoCheck                  0x080013ac   Section        0  flash.o(i.EN25QXX_Write_NoCheck)
    i.EN25QXX_Write_Page                     0x080013f4   Section        0  flash.o(i.EN25QXX_Write_Page)
    i.ESP8266_AT_Test                        0x08001448   Section        0  esp8266_drive.o(i.ESP8266_AT_Test)
    i.ESP8266_ConnectToServer                0x0800148c   Section        0  esp8266_public.o(i.ESP8266_ConnectToServer)
    i.ESP8266_Enable_MultipleId              0x0800156c   Section        0  esp8266_drive.o(i.ESP8266_Enable_MultipleId)
    i.ESP8266_Init                           0x080015ac   Section        0  esp8266_drive.o(i.ESP8266_Init)
    i.ESP8266_JoinAP                         0x08001604   Section        0  esp8266_drive.o(i.ESP8266_JoinAP)
    i.ESP8266_Net_Mode_Choose                0x08001644   Section        0  esp8266_drive.o(i.ESP8266_Net_Mode_Choose)
    i.ESP8266_Rst                            0x080016bc   Section        0  esp8266_drive.o(i.ESP8266_Rst)
    i.ESP8266_STA_LinkAP                     0x080016dc   Section        0  esp8266_public.o(i.ESP8266_STA_LinkAP)
    i.ESP8266_SendString                     0x08001750   Section        0  esp8266_drive.o(i.ESP8266_SendString)
    i.ESP8266_Send_AT_Cmd                    0x080017f0   Section        0  esp8266_drive.o(i.ESP8266_Send_AT_Cmd)
    i.EXTI7_Init                             0x080018a8   Section        0  exti.o(i.EXTI7_Init)
    i.EXTI9_5_IRQHandler                     0x080018f4   Section        0  exti.o(i.EXTI9_5_IRQHandler)
    i.EXTI_ClearITPendingBit                 0x08001938   Section        0  stm32f10x_exti.o(i.EXTI_ClearITPendingBit)
    i.EXTI_GetITStatus                       0x08001944   Section        0  stm32f10x_exti.o(i.EXTI_GetITStatus)
    i.EXTI_Init                              0x0800196c   Section        0  stm32f10x_exti.o(i.EXTI_Init)
    i.FATFS_Init                             0x08001a00   Section        0  fatfs_app.o(i.FATFS_Init)
    i.FSMC_NORSRAMCmd                        0x08001a84   Section        0  stm32f10x_fsmc.o(i.FSMC_NORSRAMCmd)
    i.FSMC_NORSRAMInit                       0x08001ab8   Section        0  stm32f10x_fsmc.o(i.FSMC_NORSRAMInit)
    i.GPIO_EXTILineConfig                    0x08001ba0   Section        0  stm32f10x_gpio.o(i.GPIO_EXTILineConfig)
    i.GPIO_Init                              0x08001be0   Section        0  stm32f10x_gpio.o(i.GPIO_Init)
    i.GPIO_ResetBits                         0x08001cf6   Section        0  stm32f10x_gpio.o(i.GPIO_ResetBits)
    i.GPIO_SetBits                           0x08001cfa   Section        0  stm32f10x_gpio.o(i.GPIO_SetBits)
    i.HardFault_Handler                      0x08001cfe   Section        0  stm32f10x_it.o(i.HardFault_Handler)
    i.KEY_Init                               0x08001d04   Section        0  key.o(i.KEY_Init)
    i.KEY_Scan                               0x08001d4c   Section        0  key.o(i.KEY_Scan)
    i.LCD_Clear                              0x08001de8   Section        0  tftlcd.o(i.LCD_Clear)
    i.LCD_Display_Dir                        0x08001e30   Section        0  tftlcd.o(i.LCD_Display_Dir)
    i.LCD_DrawFRONT_COLOR                    0x08001e94   Section        0  tftlcd.o(i.LCD_DrawFRONT_COLOR)
    i.LCD_DrawPoint                          0x08001eb0   Section        0  tftlcd.o(i.LCD_DrawPoint)
    i.LCD_Fill                               0x08001ed0   Section        0  tftlcd.o(i.LCD_Fill)
    i.LCD_Pow                                0x08001f2c   Section        0  tftlcd.o(i.LCD_Pow)
    i.LCD_ReadData                           0x08001f44   Section        0  tftlcd.o(i.LCD_ReadData)
    i.LCD_ReadPoint                          0x08001f50   Section        0  tftlcd.o(i.LCD_ReadPoint)
    i.LCD_Set_Window                         0x08001fa4   Section        0  tftlcd.o(i.LCD_Set_Window)
    i.LCD_ShowChar                           0x08002068   Section        0  tftlcd.o(i.LCD_ShowChar)
    i.LCD_ShowNum                            0x08002178   Section        0  tftlcd.o(i.LCD_ShowNum)
    i.LCD_ShowString                         0x0800220c   Section        0  tftlcd.o(i.LCD_ShowString)
    i.LCD_WriteCmd                           0x08002274   Section        0  tftlcd.o(i.LCD_WriteCmd)
    i.LCD_WriteData                          0x08002280   Section        0  tftlcd.o(i.LCD_WriteData)
    i.LCD_WriteData_Color                    0x0800228c   Section        0  tftlcd.o(i.LCD_WriteData_Color)
    i.LED_Init                               0x08002298   Section        0  led.o(i.LED_Init)
    i.MemManage_Handler                      0x080022cc   Section        0  stm32f10x_it.o(i.MemManage_Handler)
    i.MoShiShiBie_All                        0x080022d0   Section        0  algo.o(i.MoShiShiBie_All)
    MoShiShiBie_All                          0x080022d1   Thumb Code   296  algo.o(i.MoShiShiBie_All)
    i.NMI_Handler                            0x08002400   Section        0  stm32f10x_it.o(i.NMI_Handler)
    i.NVIC_Init                              0x08002404   Section        0  misc.o(i.NVIC_Init)
    i.NVIC_PriorityGroupConfig               0x08002474   Section        0  misc.o(i.NVIC_PriorityGroupConfig)
    i.Normalized                             0x08002488   Section        0  algo.o(i.Normalized)
    i.OV7670_Brightness                      0x08002804   Section        0  ov7670.o(i.OV7670_Brightness)
    i.OV7670_Color_Saturation                0x08002836   Section        0  ov7670.o(i.OV7670_Color_Saturation)
    i.OV7670_Contrast                        0x080028b0   Section        0  ov7670.o(i.OV7670_Contrast)
    i.OV7670_Init                            0x080028e4   Section        0  ov7670.o(i.OV7670_Init)
    i.OV7670_Light_Mode                      0x080029e4   Section        0  ov7670.o(i.OV7670_Light_Mode)
    i.OV7670_Special_Effects                 0x08002a40   Section        0  ov7670.o(i.OV7670_Special_Effects)
    i.OV7670_Window_Set                      0x08002aaa   Section        0  ov7670.o(i.OV7670_Window_Set)
    i.PendSV_Handler                         0x08002b34   Section        0  stm32f10x_it.o(i.PendSV_Handler)
    i.Picture_String                         0x08002b38   Section        0  algo.o(i.Picture_String)
    i.PostToWeb                              0x08002bd0   Section        0  esp8266_public.o(i.PostToWeb)
    i.RCC_AHBPeriphClockCmd                  0x08002cdc   Section        0  stm32f10x_rcc.o(i.RCC_AHBPeriphClockCmd)
    i.RCC_APB1PeriphClockCmd                 0x08002cfc   Section        0  stm32f10x_rcc.o(i.RCC_APB1PeriphClockCmd)
    i.RCC_APB2PeriphClockCmd                 0x08002d1c   Section        0  stm32f10x_rcc.o(i.RCC_APB2PeriphClockCmd)
    i.RCC_GetClocksFreq                      0x08002d3c   Section        0  stm32f10x_rcc.o(i.RCC_GetClocksFreq)
    i.RGB_HSV                                0x08002e10   Section        0  algo.o(i.RGB_HSV)
    RGB_HSV                                  0x08002e11   Thumb Code   414  algo.o(i.RGB_HSV)
    i.SCCB_Init                              0x08002fd4   Section        0  sccb.o(i.SCCB_Init)
    i.SCCB_No_Ack                            0x08003024   Section        0  sccb.o(i.SCCB_No_Ack)
    i.SCCB_RD_Byte                           0x08003064   Section        0  sccb.o(i.SCCB_RD_Byte)
    i.SCCB_RD_Reg                            0x080030b0   Section        0  sccb.o(i.SCCB_RD_Reg)
    i.SCCB_SDA_IN                            0x08003100   Section        0  sccb.o(i.SCCB_SDA_IN)
    i.SCCB_SDA_OUT                           0x0800311c   Section        0  sccb.o(i.SCCB_SDA_OUT)
    i.SCCB_Start                             0x08003140   Section        0  sccb.o(i.SCCB_Start)
    i.SCCB_Stop                              0x08003174   Section        0  sccb.o(i.SCCB_Stop)
    i.SCCB_WR_Byte                           0x080031a8   Section        0  sccb.o(i.SCCB_WR_Byte)
    i.SCCB_WR_Reg                            0x0800322c   Section        0  sccb.o(i.SCCB_WR_Reg)
    i.SD_DisSelect                           0x0800326c   Section        0  sd.o(i.SD_DisSelect)
    i.SD_GetCSD                              0x08003280   Section        0  sd.o(i.SD_GetCSD)
    i.SD_GetResponse                         0x080032aa   Section        0  sd.o(i.SD_GetResponse)
    i.SD_GetSectorCount                      0x080032d0   Section        0  sd.o(i.SD_GetSectorCount)
    i.SD_Init                                0x08003348   Section        0  sd.o(i.SD_Init)
    i.SD_ReadDisk                            0x080034d0   Section        0  sd.o(i.SD_ReadDisk)
    i.SD_RecvData                            0x08003544   Section        0  sd.o(i.SD_RecvData)
    i.SD_SPI_Init                            0x0800357c   Section        0  sd.o(i.SD_SPI_Init)
    i.SD_SPI_ReadWriteByte                   0x08003600   Section        0  sd.o(i.SD_SPI_ReadWriteByte)
    i.SD_SPI_SpeedHigh                       0x0800360c   Section        0  sd.o(i.SD_SPI_SpeedHigh)
    i.SD_SPI_SpeedLow                        0x08003616   Section        0  sd.o(i.SD_SPI_SpeedLow)
    i.SD_Select                              0x08003620   Section        0  sd.o(i.SD_Select)
    i.SD_SendBlock                           0x08003640   Section        0  sd.o(i.SD_SendBlock)
    i.SD_SendCmd                             0x08003692   Section        0  sd.o(i.SD_SendCmd)
    i.SD_WaitReady                           0x0800370a   Section        0  sd.o(i.SD_WaitReady)
    i.SD_WriteDisk                           0x0800372c   Section        0  sd.o(i.SD_WriteDisk)
    i.SPI2_Init                              0x080037bc   Section        0  spi.o(i.SPI2_Init)
    i.SPI2_ReadWriteByte                     0x08003848   Section        0  spi.o(i.SPI2_ReadWriteByte)
    i.SPI2_SetSpeed                          0x08003880   Section        0  spi.o(i.SPI2_SetSpeed)
    i.SPI_Cmd                                0x080038a8   Section        0  stm32f10x_spi.o(i.SPI_Cmd)
    i.SPI_I2S_GetFlagStatus                  0x080038c0   Section        0  stm32f10x_spi.o(i.SPI_I2S_GetFlagStatus)
    i.SPI_I2S_ReceiveData                    0x080038d2   Section        0  stm32f10x_spi.o(i.SPI_I2S_ReceiveData)
    i.SPI_I2S_SendData                       0x080038d8   Section        0  stm32f10x_spi.o(i.SPI_I2S_SendData)
    i.SPI_Init                               0x080038dc   Section        0  stm32f10x_spi.o(i.SPI_Init)
    i.SVC_Handler                            0x08003918   Section        0  stm32f10x_it.o(i.SVC_Handler)
    i.SegmentationChar                       0x0800391c   Section        0  algo.o(i.SegmentationChar)
    i.SetSysClock                            0x08003a0c   Section        0  system_stm32f10x.o(i.SetSysClock)
    SetSysClock                              0x08003a0d   Thumb Code     8  system_stm32f10x.o(i.SetSysClock)
    i.SetSysClockTo72                        0x08003a14   Section        0  system_stm32f10x.o(i.SetSysClockTo72)
    SetSysClockTo72                          0x08003a15   Thumb Code   214  system_stm32f10x.o(i.SetSysClockTo72)
    i.SysTick_CLKSourceConfig                0x08003af4   Section        0  misc.o(i.SysTick_CLKSourceConfig)
    i.SysTick_Handler                        0x08003b1c   Section        0  stm32f10x_it.o(i.SysTick_Handler)
    i.SysTick_Init                           0x08003b20   Section        0  systick.o(i.SysTick_Init)
    i.SystemInit                             0x08003b5c   Section        0  system_stm32f10x.o(i.SystemInit)
    i.TFTLCD_FSMC_Init                       0x08003bbc   Section        0  tftlcd.o(i.TFTLCD_FSMC_Init)
    i.TFTLCD_GPIO_Init                       0x08003c3c   Section        0  tftlcd.o(i.TFTLCD_GPIO_Init)
    i.TFTLCD_Init                            0x08003cac   Section        0  tftlcd.o(i.TFTLCD_Init)
    i.TIM4_IRQHandler                        0x08003fa4   Section        0  time.o(i.TIM4_IRQHandler)
    i.TIM4_Init                              0x08003ff8   Section        0  time.o(i.TIM4_Init)
    i.TIM_ClearITPendingBit                  0x08004060   Section        0  stm32f10x_tim.o(i.TIM_ClearITPendingBit)
    i.TIM_Cmd                                0x08004066   Section        0  stm32f10x_tim.o(i.TIM_Cmd)
    i.TIM_GetITStatus                        0x0800407e   Section        0  stm32f10x_tim.o(i.TIM_GetITStatus)
    i.TIM_ITConfig                           0x080040a0   Section        0  stm32f10x_tim.o(i.TIM_ITConfig)
    i.TIM_TimeBaseInit                       0x080040b4   Section        0  stm32f10x_tim.o(i.TIM_TimeBaseInit)
    i.USART1_IRQHandler                      0x08004158   Section        0  usart.o(i.USART1_IRQHandler)
    i.USART1_Init                            0x08004194   Section        0  usart.o(i.USART1_Init)
    i.USART2_IRQHandler                      0x0800424c   Section        0  esp8266_drive.o(i.USART2_IRQHandler)
    i.USART2_Init                            0x080042ec   Section        0  esp8266_drive.o(i.USART2_Init)
    i.USART_ClearFlag                        0x08004390   Section        0  stm32f10x_usart.o(i.USART_ClearFlag)
    i.USART_Cmd                              0x080043a2   Section        0  stm32f10x_usart.o(i.USART_Cmd)
    i.USART_GetFlagStatus                    0x080043ba   Section        0  stm32f10x_usart.o(i.USART_GetFlagStatus)
    i.USART_GetITStatus                      0x080043d4   Section        0  stm32f10x_usart.o(i.USART_GetITStatus)
    i.USART_ITConfig                         0x08004428   Section        0  stm32f10x_usart.o(i.USART_ITConfig)
    i.USART_Init                             0x08004474   Section        0  stm32f10x_usart.o(i.USART_Init)
    i.USART_ReceiveData                      0x0800454c   Section        0  stm32f10x_usart.o(i.USART_ReceiveData)
    i.USART_SendData                         0x08004556   Section        0  stm32f10x_usart.o(i.USART_SendData)
    i.USART_printf                           0x0800455e   Section        0  esp8266_public.o(i.USART_printf)
    i.UsageFault_Handler                     0x08004664   Section        0  stm32f10x_it.o(i.UsageFault_Handler)
    i.WordShow                               0x08004668   Section        0  algo.o(i.WordShow)
    i.__0printf$8                            0x08004788   Section        0  printf8.o(i.__0printf$8)
    i.__0sprintf$8                           0x080047a8   Section        0  printf8.o(i.__0sprintf$8)
    i.__scatterload_copy                     0x080047d0   Section       14  handlers.o(i.__scatterload_copy)
    i.__scatterload_null                     0x080047de   Section        2  handlers.o(i.__scatterload_null)
    i.__scatterload_zeroinit                 0x080047e0   Section       14  handlers.o(i.__scatterload_zeroinit)
    i._printf_core                           0x080047f0   Section        0  printf8.o(i._printf_core)
    _printf_core                             0x080047f1   Thumb Code   996  printf8.o(i._printf_core)
    i._printf_post_padding                   0x08004c00   Section        0  printf8.o(i._printf_post_padding)
    _printf_post_padding                     0x08004c01   Thumb Code    36  printf8.o(i._printf_post_padding)
    i._printf_pre_padding                    0x08004c24   Section        0  printf8.o(i._printf_pre_padding)
    _printf_pre_padding                      0x08004c25   Thumb Code    46  printf8.o(i._printf_pre_padding)
    i._sputc                                 0x08004c52   Section        0  printf8.o(i._sputc)
    _sputc                                   0x08004c53   Thumb Code    10  printf8.o(i._sputc)
    i.bmp_encode                             0x08004c5c   Section        0  bmp.o(i.bmp_encode)
    i.camera_new_pathname                    0x08004e6c   Section        0  bmp.o(i.camera_new_pathname)
    i.camera_refresh                         0x08004ebc   Section        0  discern.o(i.camera_refresh)
    i.check_fs                               0x08005034   Section        0  ff.o(i.check_fs)
    check_fs                                 0x08005035   Thumb Code   140  ff.o(i.check_fs)
    i.chk_chr                                0x080050c4   Section        0  ff.o(i.chk_chr)
    chk_chr                                  0x080050c5   Thumb Code    20  ff.o(i.chk_chr)
    i.clmt_clust                             0x080050d8   Section        0  ff.o(i.clmt_clust)
    clmt_clust                               0x080050d9   Thumb Code    50  ff.o(i.clmt_clust)
    i.clust2sect                             0x0800510a   Section        0  ff.o(i.clust2sect)
    i.cmp_lfn                                0x08005124   Section        0  ff.o(i.cmp_lfn)
    cmp_lfn                                  0x08005125   Thumb Code   154  ff.o(i.cmp_lfn)
    i.create_chain                           0x080051c4   Section        0  ff.o(i.create_chain)
    create_chain                             0x080051c5   Thumb Code   214  ff.o(i.create_chain)
    i.create_name                            0x0800529c   Section        0  ff.o(i.create_name)
    create_name                              0x0800529d   Thumb Code   604  ff.o(i.create_name)
    i.delay_ms                               0x0800550c   Section        0  systick.o(i.delay_ms)
    i.delay_us                               0x08005558   Section        0  systick.o(i.delay_us)
    i.dir_alloc                              0x080055a4   Section        0  ff.o(i.dir_alloc)
    dir_alloc                                0x080055a5   Thumb Code    92  ff.o(i.dir_alloc)
    i.dir_find                               0x08005600   Section        0  ff.o(i.dir_find)
    dir_find                                 0x08005601   Thumb Code   234  ff.o(i.dir_find)
    i.dir_next                               0x080056ea   Section        0  ff.o(i.dir_next)
    dir_next                                 0x080056eb   Thumb Code   270  ff.o(i.dir_next)
    i.dir_register                           0x080057f8   Section        0  ff.o(i.dir_register)
    dir_register                             0x080057f9   Thumb Code   298  ff.o(i.dir_register)
    i.dir_sdi                                0x08005922   Section        0  ff.o(i.dir_sdi)
    dir_sdi                                  0x08005923   Thumb Code   158  ff.o(i.dir_sdi)
    i.disk_initialize                        0x080059c0   Section        0  diskio.o(i.disk_initialize)
    i.disk_ioctl                             0x080059fc   Section        0  diskio.o(i.disk_ioctl)
    i.disk_read                              0x08005a90   Section        0  diskio.o(i.disk_read)
    i.disk_status                            0x08005b0c   Section        0  diskio.o(i.disk_status)
    i.disk_write                             0x08005b2a   Section        0  diskio.o(i.disk_write)
    i.f_close                                0x08005ba2   Section        0  ff.o(i.f_close)
    i.f_mkdir                                0x08005bc2   Section        0  ff.o(i.f_mkdir)
    i.f_mount                                0x08005d40   Section        0  ff.o(i.f_mount)
    i.f_open                                 0x08005d9c   Section        0  ff.o(i.f_open)
    i.f_read                                 0x08005f32   Section        0  ff.o(i.f_read)
    i.f_sync                                 0x080060e2   Section        0  ff.o(i.f_sync)
    i.f_write                                0x08006192   Section        0  ff.o(i.f_write)
    i.ff_convert                             0x0800637c   Section        0  cc936.o(i.ff_convert)
    i.ff_memalloc                            0x080063f8   Section        0  diskio.o(i.ff_memalloc)
    i.ff_memfree                             0x08006406   Section        0  diskio.o(i.ff_memfree)
    i.ff_wtoupper                            0x08006414   Section        0  cc936.o(i.ff_wtoupper)
    i.find_volume                            0x08006470   Section        0  ff.o(i.find_volume)
    find_volume                              0x08006471   Thumb Code   900  ff.o(i.find_volume)
    i.fit_lfn                                0x08006804   Section        0  ff.o(i.fit_lfn)
    fit_lfn                                  0x08006805   Thumb Code   122  ff.o(i.fit_lfn)
    i.follow_path                            0x08006884   Section        0  ff.o(i.follow_path)
    follow_path                              0x08006885   Thumb Code   144  ff.o(i.follow_path)
    i.fputc                                  0x08006914   Section        0  usart.o(i.fputc)
    i.gen_numname                            0x08006938   Section        0  ff.o(i.gen_numname)
    gen_numname                              0x08006939   Thumb Code   198  ff.o(i.gen_numname)
    i.get_fat                                0x08006a04   Section        0  ff.o(i.get_fat)
    i.get_fattime                            0x08006af6   Section        0  diskio.o(i.get_fattime)
    i.get_ldnumber                           0x08006afa   Section        0  ff.o(i.get_ldnumber)
    get_ldnumber                             0x08006afb   Thumb Code    74  ff.o(i.get_ldnumber)
    i.itoa                                   0x08006b44   Section        0  esp8266_public.o(i.itoa)
    itoa                                     0x08006b45   Thumb Code    98  esp8266_public.o(i.itoa)
    i.ld_clust                               0x08006ba6   Section        0  ff.o(i.ld_clust)
    ld_clust                                 0x08006ba7   Thumb Code    32  ff.o(i.ld_clust)
    i.main                                   0x08006bc8   Section        0  main.o(i.main)
    i.mem_cmp                                0x08006f74   Section        0  ff.o(i.mem_cmp)
    mem_cmp                                  0x08006f75   Thumb Code    38  ff.o(i.mem_cmp)
    i.mem_cpy                                0x08006f9a   Section        0  ff.o(i.mem_cpy)
    mem_cpy                                  0x08006f9b   Thumb Code    26  ff.o(i.mem_cpy)
    i.mem_set                                0x08006fb4   Section        0  ff.o(i.mem_set)
    mem_set                                  0x08006fb5   Thumb Code    20  ff.o(i.mem_set)
    i.move_window                            0x08006fc8   Section        0  ff.o(i.move_window)
    move_window                              0x08006fc9   Thumb Code    52  ff.o(i.move_window)
    i.my_mem_free                            0x08006ffc   Section        0  malloc.o(i.my_mem_free)
    i.my_mem_init                            0x08007068   Section        0  malloc.o(i.my_mem_init)
    i.my_mem_malloc                          0x080070ac   Section        0  malloc.o(i.my_mem_malloc)
    i.my_mem_perused                         0x08007154   Section        0  malloc.o(i.my_mem_perused)
    i.my_mem_set                             0x08007194   Section        0  malloc.o(i.my_mem_set)
    i.myfree                                 0x080071a8   Section        0  malloc.o(i.myfree)
    i.mymalloc                               0x080071cc   Section        0  malloc.o(i.mymalloc)
    i.pic_memalloc                           0x080071f4   Section        0  piclib.o(i.pic_memalloc)
    i.pic_memfree                            0x08007202   Section        0  piclib.o(i.pic_memfree)
    i.put_fat                                0x08007210   Section        0  ff.o(i.put_fat)
    i.remove_chain                           0x08007352   Section        0  ff.o(i.remove_chain)
    remove_chain                             0x08007353   Thumb Code   108  ff.o(i.remove_chain)
    i.st_clust                               0x080073be   Section        0  ff.o(i.st_clust)
    st_clust                                 0x080073bf   Thumb Code    16  ff.o(i.st_clust)
    i.sum_sfn                                0x080073ce   Section        0  ff.o(i.sum_sfn)
    sum_sfn                                  0x080073cf   Thumb Code    32  ff.o(i.sum_sfn)
    i.sync_fs                                0x080073ee   Section        0  ff.o(i.sync_fs)
    sync_fs                                  0x080073ef   Thumb Code   200  ff.o(i.sync_fs)
    i.sync_window                            0x080074b6   Section        0  ff.o(i.sync_window)
    sync_window                              0x080074b7   Thumb Code    82  ff.o(i.sync_window)
    i.validate                               0x08007508   Section        0  ff.o(i.validate)
    validate                                 0x08007509   Thumb Code    50  ff.o(i.validate)
    .constdata                               0x0800753a   Section     5412  tftlcd.o(.constdata)
    .constdata                               0x08008a5e   Section      336  ov7670.o(.constdata)
    .constdata                               0x08008bae   Section       58  ff.o(.constdata)
    LfnOfs                                   0x08008bae   Data          13  ff.o(.constdata)
    vst                                      0x08008bbc   Data          22  ff.o(.constdata)
    cst                                      0x08008bd2   Data          22  ff.o(.constdata)
    .constdata                               0x08008be8   Section    176320  cc936.o(.constdata)
    uni2oem                                  0x08008be8   Data       87172  cc936.o(.constdata)
    oem2uni                                  0x0801e06c   Data       87172  cc936.o(.constdata)
    lower                                    0x080334f0   Data         988  cc936.o(.constdata)
    upper                                    0x080338cc   Data         988  cc936.o(.constdata)
    .constdata                               0x08033ca8   Section       24  malloc.o(.constdata)
    .conststring                             0x08033cc0   Section      229  esp8266_public.o(.conststring)
    .data                                    0x20000000   Section       20  stm32f10x_rcc.o(.data)
    APBAHBPrescTable                         0x20000000   Data          16  stm32f10x_rcc.o(.data)
    ADCPrescTable                            0x20000010   Data           4  stm32f10x_rcc.o(.data)
    .data                                    0x20000014   Section       12  tftlcd.o(.data)
    .data                                    0x20000020   Section        1  key.o(.data)
    key                                      0x20000020   Data           1  key.o(.data)
    .data                                    0x20000021   Section        1  exti.o(.data)
    .data                                    0x20000022   Section        1  time.o(.data)
    .data                                    0x20000023   Section        1  sd.o(.data)
    .data                                    0x20000024   Section        2  flash.o(.data)
    .data                                    0x20000026   Section        1  esp8266_public.o(.data)
    .data                                    0x20000028   Section        4  systick.o(.data)
    fac_us                                   0x20000028   Data           1  systick.o(.data)
    fac_ms                                   0x2000002a   Data           2  systick.o(.data)
    .data                                    0x2000002c   Section        2  diskio.o(.data)
    .data                                    0x2000002e   Section        2  ff.o(.data)
    Fsid                                     0x2000002e   Data           2  ff.o(.data)
    .data                                    0x20000030   Section       20  fatfs_app.o(.data)
    .data                                    0x20000044   Section       28  malloc.o(.data)
    .data                                    0x20000060   Section      194  value.o(.data)
    .data                                    0x20000122   Section     6642  string.o(.data)
    .data                                    0x20001b14   Section        4  stdout.o(.data)
    .bss                                     0x20001b18   Section     4096  flash.o(.bss)
    .bss                                     0x20002b18   Section     1026  esp8266_drive.o(.bss)
    .bss                                     0x20002f1c   Section       12  ff.o(.bss)
    FatFs                                    0x20002f1c   Data          12  ff.o(.bss)
    .bss                                     0x20002f28   Section      336  fatfs_app.o(.bss)
    lfn                                      0x20002f78   Data         256  fatfs_app.o(.bss)
    .bss                                     0x20003080   Section    43520  malloc.o(.bss)
    .bss                                     0x2000da80   Section      750  value.o(.bss)
    STACK                                    0x2000dd70   Section     1024  startup_stm32f10x_hd.o(STACK)
    .ARM.__AT_0x68000000                     0x68000000   Section    983040  malloc.o(.ARM.__AT_0x68000000)
    .ARM.__AT_0x680F0000                     0x680f0000   Section    61440  malloc.o(.ARM.__AT_0x680F0000)

    Global Symbols

    Symbol Name                              Value     Ov Type        Size  Object(Section)

    BuildAttributes$$THM_ISAv4$P$D$K$B$S$PE$A:L22UL41UL21$X:L11$S22US41US21$IEEE1$IW$USESV6$~STKCKD$USESV7$~SHL$OTIME$ROPI$EBA8$MICROLIB$REQ8$PRES8$EABIv2 0x00000000   Number         0  anon$$obj.o ABSOLUTE
    __ARM_use_no_argv                        0x00000000   Number         0  main.o ABSOLUTE
    _printf_a                                0x00000000   Number         0  stubs.o ABSOLUTE
    _printf_c                                0x00000000   Number         0  stubs.o ABSOLUTE
    _printf_charcount                        0x00000000   Number         0  stubs.o ABSOLUTE
    _printf_d                                0x00000000   Number         0  stubs.o ABSOLUTE
    _printf_e                                0x00000000   Number         0  stubs.o ABSOLUTE
    _printf_f                                0x00000000   Number         0  stubs.o ABSOLUTE
    _printf_flags                            0x00000000   Number         0  stubs.o ABSOLUTE
    _printf_fp_dec                           0x00000000   Number         0  stubs.o ABSOLUTE
    _printf_fp_hex                           0x00000000   Number         0  stubs.o ABSOLUTE
    _printf_g                                0x00000000   Number         0  stubs.o ABSOLUTE
    _printf_i                                0x00000000   Number         0  stubs.o ABSOLUTE
    _printf_int_dec                          0x00000000   Number         0  stubs.o ABSOLUTE
    _printf_l                                0x00000000   Number         0  stubs.o ABSOLUTE
    _printf_lc                               0x00000000   Number         0  stubs.o ABSOLUTE
    _printf_ll                               0x00000000   Number         0  stubs.o ABSOLUTE
    _printf_lld                              0x00000000   Number         0  stubs.o ABSOLUTE
    _printf_lli                              0x00000000   Number         0  stubs.o ABSOLUTE
    _printf_llo                              0x00000000   Number         0  stubs.o ABSOLUTE
    _printf_llu                              0x00000000   Number         0  stubs.o ABSOLUTE
    _printf_llx                              0x00000000   Number         0  stubs.o ABSOLUTE
    _printf_longlong_dec                     0x00000000   Number         0  stubs.o ABSOLUTE
    _printf_longlong_hex                     0x00000000   Number         0  stubs.o ABSOLUTE
    _printf_longlong_oct                     0x00000000   Number         0  stubs.o ABSOLUTE
    _printf_ls                               0x00000000   Number         0  stubs.o ABSOLUTE
    _printf_mbtowc                           0x00000000   Number         0  stubs.o ABSOLUTE
    _printf_n                                0x00000000   Number         0  stubs.o ABSOLUTE
    _printf_o                                0x00000000   Number         0  stubs.o ABSOLUTE
    _printf_p                                0x00000000   Number         0  stubs.o ABSOLUTE
    _printf_percent                          0x00000000   Number         0  stubs.o ABSOLUTE
    _printf_pre_padding                      0x00000000   Number         0  stubs.o ABSOLUTE
    _printf_return_value                     0x00000000   Number         0  stubs.o ABSOLUTE
    _printf_s                                0x00000000   Number         0  stubs.o ABSOLUTE
    _printf_sizespec                         0x00000000   Number         0  stubs.o ABSOLUTE
    _printf_str                              0x00000000   Number         0  stubs.o ABSOLUTE
    _printf_truncate_signed                  0x00000000   Number         0  stubs.o ABSOLUTE
    _printf_truncate_unsigned                0x00000000   Number         0  stubs.o ABSOLUTE
    _printf_u                                0x00000000   Number         0  stubs.o ABSOLUTE
    _printf_wc                               0x00000000   Number         0  stubs.o ABSOLUTE
    _printf_wctomb                           0x00000000   Number         0  stubs.o ABSOLUTE
    _printf_widthprec                        0x00000000   Number         0  stubs.o ABSOLUTE
    _printf_x                                0x00000000   Number         0  stubs.o ABSOLUTE
    __cpp_initialize__aeabi_                  - Undefined Weak Reference
    __cxa_finalize                            - Undefined Weak Reference
    _clock_init                               - Undefined Weak Reference
    _microlib_exit                            - Undefined Weak Reference
    __Vectors_Size                           0x00000130   Number         0  startup_stm32f10x_hd.o ABSOLUTE
    __Vectors                                0x08000000   Data           4  startup_stm32f10x_hd.o(RESET)
    __Vectors_End                            0x08000130   Data           0  startup_stm32f10x_hd.o(RESET)
    __main                                   0x08000131   Thumb Code     0  entry.o(.ARM.Collect$$$$00000000)
    _main_stk                                0x08000131   Thumb Code     0  entry2.o(.ARM.Collect$$$$00000001)
    _main_scatterload                        0x08000135   Thumb Code     0  entry5.o(.ARM.Collect$$$$00000004)
    __main_after_scatterload                 0x08000139   Thumb Code     0  entry5.o(.ARM.Collect$$$$00000004)
    _main_clock                              0x08000139   Thumb Code     0  entry7b.o(.ARM.Collect$$$$00000008)
    _main_cpp_init                           0x08000139   Thumb Code     0  entry8b.o(.ARM.Collect$$$$0000000A)
    _main_init                               0x08000139   Thumb Code     0  entry9a.o(.ARM.Collect$$$$0000000B)
    __rt_final_cpp                           0x08000141   Thumb Code     0  entry10a.o(.ARM.Collect$$$$0000000D)
    __rt_final_exit                          0x08000141   Thumb Code     0  entry11a.o(.ARM.Collect$$$$0000000F)
    Reset_Handler                            0x08000145   Thumb Code     8  startup_stm32f10x_hd.o(.text)
    ADC1_2_IRQHandler                        0x0800015f   Thumb Code     0  startup_stm32f10x_hd.o(.text)
    ADC3_IRQHandler                          0x0800015f   Thumb Code     0  startup_stm32f10x_hd.o(.text)
    CAN1_RX1_IRQHandler                      0x0800015f   Thumb Code     0  startup_stm32f10x_hd.o(.text)
    CAN1_SCE_IRQHandler                      0x0800015f   Thumb Code     0  startup_stm32f10x_hd.o(.text)
    DMA1_Channel1_IRQHandler                 0x0800015f   Thumb Code     0  startup_stm32f10x_hd.o(.text)
    DMA1_Channel2_IRQHandler                 0x0800015f   Thumb Code     0  startup_stm32f10x_hd.o(.text)
    DMA1_Channel3_IRQHandler                 0x0800015f   Thumb Code     0  startup_stm32f10x_hd.o(.text)
    DMA1_Channel4_IRQHandler                 0x0800015f   Thumb Code     0  startup_stm32f10x_hd.o(.text)
    DMA1_Channel5_IRQHandler                 0x0800015f   Thumb Code     0  startup_stm32f10x_hd.o(.text)
    DMA1_Channel6_IRQHandler                 0x0800015f   Thumb Code     0  startup_stm32f10x_hd.o(.text)
    DMA1_Channel7_IRQHandler                 0x0800015f   Thumb Code     0  startup_stm32f10x_hd.o(.text)
    DMA2_Channel1_IRQHandler                 0x0800015f   Thumb Code     0  startup_stm32f10x_hd.o(.text)
    DMA2_Channel2_IRQHandler                 0x0800015f   Thumb Code     0  startup_stm32f10x_hd.o(.text)
    DMA2_Channel3_IRQHandler                 0x0800015f   Thumb Code     0  startup_stm32f10x_hd.o(.text)
    DMA2_Channel4_5_IRQHandler               0x0800015f   Thumb Code     0  startup_stm32f10x_hd.o(.text)
    EXTI0_IRQHandler                         0x0800015f   Thumb Code     0  startup_stm32f10x_hd.o(.text)
    EXTI15_10_IRQHandler                     0x0800015f   Thumb Code     0  startup_stm32f10x_hd.o(.text)
    EXTI1_IRQHandler                         0x0800015f   Thumb Code     0  startup_stm32f10x_hd.o(.text)
    EXTI2_IRQHandler                         0x0800015f   Thumb Code     0  startup_stm32f10x_hd.o(.text)
    EXTI3_IRQHandler                         0x0800015f   Thumb Code     0  startup_stm32f10x_hd.o(.text)
    EXTI4_IRQHandler                         0x0800015f   Thumb Code     0  startup_stm32f10x_hd.o(.text)
    FLASH_IRQHandler                         0x0800015f   Thumb Code     0  startup_stm32f10x_hd.o(.text)
    FSMC_IRQHandler                          0x0800015f   Thumb Code     0  startup_stm32f10x_hd.o(.text)
    I2C1_ER_IRQHandler                       0x0800015f   Thumb Code     0  startup_stm32f10x_hd.o(.text)
    I2C1_EV_IRQHandler                       0x0800015f   Thumb Code     0  startup_stm32f10x_hd.o(.text)
    I2C2_ER_IRQHandler                       0x0800015f   Thumb Code     0  startup_stm32f10x_hd.o(.text)
    I2C2_EV_IRQHandler                       0x0800015f   Thumb Code     0  startup_stm32f10x_hd.o(.text)
    PVD_IRQHandler                           0x0800015f   Thumb Code     0  startup_stm32f10x_hd.o(.text)
    RCC_IRQHandler                           0x0800015f   Thumb Code     0  startup_stm32f10x_hd.o(.text)
    RTCAlarm_IRQHandler                      0x0800015f   Thumb Code     0  startup_stm32f10x_hd.o(.text)
    RTC_IRQHandler                           0x0800015f   Thumb Code     0  startup_stm32f10x_hd.o(.text)
    SDIO_IRQHandler                          0x0800015f   Thumb Code     0  startup_stm32f10x_hd.o(.text)
    SPI1_IRQHandler                          0x0800015f   Thumb Code     0  startup_stm32f10x_hd.o(.text)
    SPI2_IRQHandler                          0x0800015f   Thumb Code     0  startup_stm32f10x_hd.o(.text)
    SPI3_IRQHandler                          0x0800015f   Thumb Code     0  startup_stm32f10x_hd.o(.text)
    TAMPER_IRQHandler                        0x0800015f   Thumb Code     0  startup_stm32f10x_hd.o(.text)
    TIM1_BRK_IRQHandler                      0x0800015f   Thumb Code     0  startup_stm32f10x_hd.o(.text)
    TIM1_CC_IRQHandler                       0x0800015f   Thumb Code     0  startup_stm32f10x_hd.o(.text)
    TIM1_TRG_COM_IRQHandler                  0x0800015f   Thumb Code     0  startup_stm32f10x_hd.o(.text)
    TIM1_UP_IRQHandler                       0x0800015f   Thumb Code     0  startup_stm32f10x_hd.o(.text)
    TIM2_IRQHandler                          0x0800015f   Thumb Code     0  startup_stm32f10x_hd.o(.text)
    TIM3_IRQHandler                          0x0800015f   Thumb Code     0  startup_stm32f10x_hd.o(.text)
    TIM5_IRQHandler                          0x0800015f   Thumb Code     0  startup_stm32f10x_hd.o(.text)
    TIM6_IRQHandler                          0x0800015f   Thumb Code     0  startup_stm32f10x_hd.o(.text)
    TIM7_IRQHandler                          0x0800015f   Thumb Code     0  startup_stm32f10x_hd.o(.text)
    TIM8_BRK_IRQHandler                      0x0800015f   Thumb Code     0  startup_stm32f10x_hd.o(.text)
    TIM8_CC_IRQHandler                       0x0800015f   Thumb Code     0  startup_stm32f10x_hd.o(.text)
    TIM8_TRG_COM_IRQHandler                  0x0800015f   Thumb Code     0  startup_stm32f10x_hd.o(.text)
    TIM8_UP_IRQHandler                       0x0800015f   Thumb Code     0  startup_stm32f10x_hd.o(.text)
    UART4_IRQHandler                         0x0800015f   Thumb Code     0  startup_stm32f10x_hd.o(.text)
    UART5_IRQHandler                         0x0800015f   Thumb Code     0  startup_stm32f10x_hd.o(.text)
    USART3_IRQHandler                        0x0800015f   Thumb Code     0  startup_stm32f10x_hd.o(.text)
    USBWakeUp_IRQHandler                     0x0800015f   Thumb Code     0  startup_stm32f10x_hd.o(.text)
    USB_HP_CAN1_TX_IRQHandler                0x0800015f   Thumb Code     0  startup_stm32f10x_hd.o(.text)
    USB_LP_CAN1_RX0_IRQHandler               0x0800015f   Thumb Code     0  startup_stm32f10x_hd.o(.text)
    WWDG_IRQHandler                          0x0800015f   Thumb Code     0  startup_stm32f10x_hd.o(.text)
    __aeabi_memset                           0x08000169   Thumb Code    14  memseta.o(.text)
    __aeabi_memset4                          0x08000169   Thumb Code     0  memseta.o(.text)
    __aeabi_memset8                          0x08000169   Thumb Code     0  memseta.o(.text)
    __aeabi_memclr                           0x08000177   Thumb Code     4  memseta.o(.text)
    __aeabi_memclr4                          0x08000177   Thumb Code     0  memseta.o(.text)
    __aeabi_memclr8                          0x08000177   Thumb Code     0  memseta.o(.text)
    _memset$wrapper                          0x0800017b   Thumb Code    18  memseta.o(.text)
    strstr                                   0x0800018d   Thumb Code    36  strstr.o(.text)
    __aeabi_fadd                             0x080001b1   Thumb Code   164  fadd.o(.text)
    __aeabi_fsub                             0x08000255   Thumb Code     6  fadd.o(.text)
    __aeabi_frsub                            0x0800025b   Thumb Code     6  fadd.o(.text)
    __aeabi_fmul                             0x08000261   Thumb Code   100  fmul.o(.text)
    __aeabi_fdiv                             0x080002c5   Thumb Code   124  fdiv.o(.text)
    __aeabi_i2f                              0x08000341   Thumb Code    18  fflti.o(.text)
    __aeabi_ui2f                             0x08000353   Thumb Code    10  ffltui.o(.text)
    __aeabi_cfcmpeq                          0x0800035d   Thumb Code     0  cfcmple.o(.text)
    __aeabi_cfcmple                          0x0800035d   Thumb Code    20  cfcmple.o(.text)
    __aeabi_cfrcmple                         0x08000371   Thumb Code    20  cfrcmple.o(.text)
    __aeabi_uldivmod                         0x08000385   Thumb Code    98  uldiv.o(.text)
    __I$use$fp                               0x080003e7   Thumb Code     0  iusefp.o(.text)
    _float_round                             0x080003e7   Thumb Code    18  fepilogue.o(.text)
    _float_epilogue                          0x080003f9   Thumb Code    92  fepilogue.o(.text)
    __scatterload                            0x08000455   Thumb Code    28  init.o(.text)
    __scatterload_rt2                        0x08000455   Thumb Code     0  init.o(.text)
    __aeabi_llsl                             0x08000479   Thumb Code    30  llshl.o(.text)
    _ll_shift_l                              0x08000479   Thumb Code     0  llshl.o(.text)
    __aeabi_llsr                             0x08000497   Thumb Code    32  llushr.o(.text)
    _ll_ushift_r                             0x08000497   Thumb Code     0  llushr.o(.text)
    __decompress                             0x080004b7   Thumb Code     0  __dclz77c.o(.text)
    __decompress2                            0x080004b7   Thumb Code    94  __dclz77c.o(.text)
    BusFault_Handler                         0x08000515   Thumb Code     4  stm32f10x_it.o(i.BusFault_Handler)
    CameraDiscern                            0x08000519   Thumb Code   418  discern.o(i.CameraDiscern)
    CameraScan                               0x080006c9   Thumb Code     8  discern.o(i.CameraScan)
    ChangePoint_Analysis_320                 0x080006d1   Thumb Code   362  algo.o(i.ChangePoint_Analysis_320)
    ChangePoint_Analysis_Blue                0x08000855   Thumb Code   238  algo.o(i.ChangePoint_Analysis_Blue)
    ChangePoint_Show_320                     0x08000979   Thumb Code    76  algo.o(i.ChangePoint_Show_320)
    CharacterRecognition                     0x080009cd   Thumb Code  1668  algo.o(i.CharacterRecognition)
    DebugMon_Handler                         0x080010f1   Thumb Code     2  stm32f10x_it.o(i.DebugMon_Handler)
    EN25QXX_Erase_Sector                     0x080010f5   Thumb Code    70  flash.o(i.EN25QXX_Erase_Sector)
    EN25QXX_Init                             0x0800114d   Thumb Code   154  flash.o(i.EN25QXX_Init)
    EN25QXX_Read                             0x080011fd   Thumb Code    74  flash.o(i.EN25QXX_Read)
    EN25QXX_ReadID                           0x0800124d   Thumb Code    64  flash.o(i.EN25QXX_ReadID)
    EN25QXX_ReadSR                           0x08001295   Thumb Code    36  flash.o(i.EN25QXX_ReadSR)
    EN25QXX_Wait_Busy                        0x080012c1   Thumb Code    18  flash.o(i.EN25QXX_Wait_Busy)
    EN25QXX_Write                            0x080012d5   Thumb Code   180  flash.o(i.EN25QXX_Write)
    EN25QXX_Write_Enable                     0x0800138d   Thumb Code    24  flash.o(i.EN25QXX_Write_Enable)
    EN25QXX_Write_NoCheck                    0x080013ad   Thumb Code    70  flash.o(i.EN25QXX_Write_NoCheck)
    EN25QXX_Write_Page                       0x080013f5   Thumb Code    80  flash.o(i.EN25QXX_Write_Page)
    ESP8266_AT_Test                          0x08001449   Thumb Code    56  esp8266_drive.o(i.ESP8266_AT_Test)
    ESP8266_ConnectToServer                  0x0800148d   Thumb Code   102  esp8266_public.o(i.ESP8266_ConnectToServer)
    ESP8266_Enable_MultipleId                0x0800156d   Thumb Code    42  esp8266_drive.o(i.ESP8266_Enable_MultipleId)
    ESP8266_Init                             0x080015ad   Thumb Code    78  esp8266_drive.o(i.ESP8266_Init)
    ESP8266_JoinAP                           0x08001605   Thumb Code    38  esp8266_drive.o(i.ESP8266_JoinAP)
    ESP8266_Net_Mode_Choose                  0x08001645   Thumb Code    68  esp8266_drive.o(i.ESP8266_Net_Mode_Choose)
    ESP8266_Rst                              0x080016bd   Thumb Code    28  esp8266_drive.o(i.ESP8266_Rst)
    ESP8266_STA_LinkAP                       0x080016dd   Thumb Code    54  esp8266_public.o(i.ESP8266_STA_LinkAP)
    ESP8266_SendString                       0x08001751   Thumb Code   102  esp8266_drive.o(i.ESP8266_SendString)
    ESP8266_Send_AT_Cmd                      0x080017f1   Thumb Code   164  esp8266_drive.o(i.ESP8266_Send_AT_Cmd)
    EXTI7_Init                               0x080018a9   Thumb Code    76  exti.o(i.EXTI7_Init)
    EXTI9_5_IRQHandler                       0x080018f5   Thumb Code    50  exti.o(i.EXTI9_5_IRQHandler)
    EXTI_ClearITPendingBit                   0x08001939   Thumb Code     6  stm32f10x_exti.o(i.EXTI_ClearITPendingBit)
    EXTI_GetITStatus                         0x08001945   Thumb Code    34  stm32f10x_exti.o(i.EXTI_GetITStatus)
    EXTI_Init                                0x0800196d   Thumb Code   142  stm32f10x_exti.o(i.EXTI_Init)
    FATFS_Init                               0x08001a01   Thumb Code   114  fatfs_app.o(i.FATFS_Init)
    FSMC_NORSRAMCmd                          0x08001a85   Thumb Code    46  stm32f10x_fsmc.o(i.FSMC_NORSRAMCmd)
    FSMC_NORSRAMInit                         0x08001ab9   Thumb Code   230  stm32f10x_fsmc.o(i.FSMC_NORSRAMInit)
    GPIO_EXTILineConfig                      0x08001ba1   Thumb Code    60  stm32f10x_gpio.o(i.GPIO_EXTILineConfig)
    GPIO_Init                                0x08001be1   Thumb Code   278  stm32f10x_gpio.o(i.GPIO_Init)
    GPIO_ResetBits                           0x08001cf7   Thumb Code     4  stm32f10x_gpio.o(i.GPIO_ResetBits)
    GPIO_SetBits                             0x08001cfb   Thumb Code     4  stm32f10x_gpio.o(i.GPIO_SetBits)
    HardFault_Handler                        0x08001cff   Thumb Code     4  stm32f10x_it.o(i.HardFault_Handler)
    KEY_Init                                 0x08001d05   Thumb Code    64  key.o(i.KEY_Init)
    KEY_Scan                                 0x08001d4d   Thumb Code   142  key.o(i.KEY_Scan)
    LCD_Clear                                0x08001de9   Thumb Code    68  tftlcd.o(i.LCD_Clear)
    LCD_Display_Dir                          0x08001e31   Thumb Code    96  tftlcd.o(i.LCD_Display_Dir)
    LCD_DrawFRONT_COLOR                      0x08001e95   Thumb Code    28  tftlcd.o(i.LCD_DrawFRONT_COLOR)
    LCD_DrawPoint                            0x08001eb1   Thumb Code    28  tftlcd.o(i.LCD_DrawPoint)
    LCD_Fill                                 0x08001ed1   Thumb Code    92  tftlcd.o(i.LCD_Fill)
    LCD_Pow                                  0x08001f2d   Thumb Code    22  tftlcd.o(i.LCD_Pow)
    LCD_ReadData                             0x08001f45   Thumb Code     6  tftlcd.o(i.LCD_ReadData)
    LCD_ReadPoint                            0x08001f51   Thumb Code    78  tftlcd.o(i.LCD_ReadPoint)
    LCD_Set_Window                           0x08001fa5   Thumb Code   192  tftlcd.o(i.LCD_Set_Window)
    LCD_ShowChar                             0x08002069   Thumb Code   252  tftlcd.o(i.LCD_ShowChar)
    LCD_ShowNum                              0x08002179   Thumb Code   148  tftlcd.o(i.LCD_ShowNum)
    LCD_ShowString                           0x0800220d   Thumb Code   102  tftlcd.o(i.LCD_ShowString)
    LCD_WriteCmd                             0x08002275   Thumb Code     6  tftlcd.o(i.LCD_WriteCmd)
    LCD_WriteData                            0x08002281   Thumb Code     6  tftlcd.o(i.LCD_WriteData)
    LCD_WriteData_Color                      0x0800228d   Thumb Code     6  tftlcd.o(i.LCD_WriteData_Color)
    LED_Init                                 0x08002299   Thumb Code    46  led.o(i.LED_Init)
    MemManage_Handler                        0x080022cd   Thumb Code     4  stm32f10x_it.o(i.MemManage_Handler)
    NMI_Handler                              0x08002401   Thumb Code     2  stm32f10x_it.o(i.NMI_Handler)
    NVIC_Init                                0x08002405   Thumb Code   100  misc.o(i.NVIC_Init)
    NVIC_PriorityGroupConfig                 0x08002475   Thumb Code    10  misc.o(i.NVIC_PriorityGroupConfig)
    Normalized                               0x08002489   Thumb Code   880  algo.o(i.Normalized)
    OV7670_Brightness                        0x08002805   Thumb Code    50  ov7670.o(i.OV7670_Brightness)
    OV7670_Color_Saturation                  0x08002837   Thumb Code   122  ov7670.o(i.OV7670_Color_Saturation)
    OV7670_Contrast                          0x080028b1   Thumb Code    50  ov7670.o(i.OV7670_Contrast)
    OV7670_Init                              0x080028e5   Thumb Code   232  ov7670.o(i.OV7670_Init)
    OV7670_Light_Mode                        0x080029e5   Thumb Code    92  ov7670.o(i.OV7670_Light_Mode)
    OV7670_Special_Effects                   0x08002a41   Thumb Code   106  ov7670.o(i.OV7670_Special_Effects)
    OV7670_Window_Set                        0x08002aab   Thumb Code   138  ov7670.o(i.OV7670_Window_Set)
    PendSV_Handler                           0x08002b35   Thumb Code     2  stm32f10x_it.o(i.PendSV_Handler)
    Picture_String                           0x08002b39   Thumb Code   148  algo.o(i.Picture_String)
    PostToWeb                                0x08002bd1   Thumb Code   196  esp8266_public.o(i.PostToWeb)
    RCC_AHBPeriphClockCmd                    0x08002cdd   Thumb Code    26  stm32f10x_rcc.o(i.RCC_AHBPeriphClockCmd)
    RCC_APB1PeriphClockCmd                   0x08002cfd   Thumb Code    26  stm32f10x_rcc.o(i.RCC_APB1PeriphClockCmd)
    RCC_APB2PeriphClockCmd                   0x08002d1d   Thumb Code    26  stm32f10x_rcc.o(i.RCC_APB2PeriphClockCmd)
    RCC_GetClocksFreq                        0x08002d3d   Thumb Code   192  stm32f10x_rcc.o(i.RCC_GetClocksFreq)
    SCCB_Init                                0x08002fd5   Thumb Code    76  sccb.o(i.SCCB_Init)
    SCCB_No_Ack                              0x08003025   Thumb Code    56  sccb.o(i.SCCB_No_Ack)
    SCCB_RD_Byte                             0x08003065   Thumb Code    68  sccb.o(i.SCCB_RD_Byte)
    SCCB_RD_Reg                              0x080030b1   Thumb Code    78  sccb.o(i.SCCB_RD_Reg)
    SCCB_SDA_IN                              0x08003101   Thumb Code    24  sccb.o(i.SCCB_SDA_IN)
    SCCB_SDA_OUT                             0x0800311d   Thumb Code    30  sccb.o(i.SCCB_SDA_OUT)
    SCCB_Start                               0x08003141   Thumb Code    42  sccb.o(i.SCCB_Start)
    SCCB_Stop                                0x08003175   Thumb Code    42  sccb.o(i.SCCB_Stop)
    SCCB_WR_Byte                             0x080031a9   Thumb Code   122  sccb.o(i.SCCB_WR_Byte)
    SCCB_WR_Reg                              0x0800322d   Thumb Code    62  sccb.o(i.SCCB_WR_Reg)
    SD_DisSelect                             0x0800326d   Thumb Code    16  sd.o(i.SD_DisSelect)
    SD_GetCSD                                0x08003281   Thumb Code    42  sd.o(i.SD_GetCSD)
    SD_GetResponse                           0x080032ab   Thumb Code    38  sd.o(i.SD_GetResponse)
    SD_GetSectorCount                        0x080032d1   Thumb Code   118  sd.o(i.SD_GetSectorCount)
    SD_Init                                  0x08003349   Thumb Code   386  sd.o(i.SD_Init)
    SD_ReadDisk                              0x080034d1   Thumb Code   112  sd.o(i.SD_ReadDisk)
    SD_RecvData                              0x08003545   Thumb Code    56  sd.o(i.SD_RecvData)
    SD_SPI_Init                              0x0800357d   Thumb Code   114  sd.o(i.SD_SPI_Init)
    SD_SPI_ReadWriteByte                     0x08003601   Thumb Code    12  sd.o(i.SD_SPI_ReadWriteByte)
    SD_SPI_SpeedHigh                         0x0800360d   Thumb Code    10  sd.o(i.SD_SPI_SpeedHigh)
    SD_SPI_SpeedLow                          0x08003617   Thumb Code    10  sd.o(i.SD_SPI_SpeedLow)
    SD_Select                                0x08003621   Thumb Code    26  sd.o(i.SD_Select)
    SD_SendBlock                             0x08003641   Thumb Code    82  sd.o(i.SD_SendBlock)
    SD_SendCmd                               0x08003693   Thumb Code   120  sd.o(i.SD_SendCmd)
    SD_WaitReady                             0x0800370b   Thumb Code    34  sd.o(i.SD_WaitReady)
    SD_WriteDisk                             0x0800372d   Thumb Code   140  sd.o(i.SD_WriteDisk)
    SPI2_Init                                0x080037bd   Thumb Code   130  spi.o(i.SPI2_Init)
    SPI2_ReadWriteByte                       0x08003849   Thumb Code    50  spi.o(i.SPI2_ReadWriteByte)
    SPI2_SetSpeed                            0x08003881   Thumb Code    36  spi.o(i.SPI2_SetSpeed)
    SPI_Cmd                                  0x080038a9   Thumb Code    24  stm32f10x_spi.o(i.SPI_Cmd)
    SPI_I2S_GetFlagStatus                    0x080038c1   Thumb Code    18  stm32f10x_spi.o(i.SPI_I2S_GetFlagStatus)
    SPI_I2S_ReceiveData                      0x080038d3   Thumb Code     6  stm32f10x_spi.o(i.SPI_I2S_ReceiveData)
    SPI_I2S_SendData                         0x080038d9   Thumb Code     4  stm32f10x_spi.o(i.SPI_I2S_SendData)
    SPI_Init                                 0x080038dd   Thumb Code    60  stm32f10x_spi.o(i.SPI_Init)
    SVC_Handler                              0x08003919   Thumb Code     2  stm32f10x_it.o(i.SVC_Handler)
    SegmentationChar                         0x0800391d   Thumb Code   206  algo.o(i.SegmentationChar)
    SysTick_CLKSourceConfig                  0x08003af5   Thumb Code    40  misc.o(i.SysTick_CLKSourceConfig)
    SysTick_Handler                          0x08003b1d   Thumb Code     2  stm32f10x_it.o(i.SysTick_Handler)
    SysTick_Init                             0x08003b21   Thumb Code    52  systick.o(i.SysTick_Init)
    SystemInit                               0x08003b5d   Thumb Code    78  system_stm32f10x.o(i.SystemInit)
    TFTLCD_FSMC_Init                         0x08003bbd   Thumb Code   126  tftlcd.o(i.TFTLCD_FSMC_Init)
    TFTLCD_GPIO_Init                         0x08003c3d   Thumb Code    98  tftlcd.o(i.TFTLCD_GPIO_Init)
    TFTLCD_Init                              0x08003cad   Thumb Code   738  tftlcd.o(i.TFTLCD_Init)
    TIM4_IRQHandler                          0x08003fa5   Thumb Code    54  time.o(i.TIM4_IRQHandler)
    TIM4_Init                                0x08003ff9   Thumb Code    98  time.o(i.TIM4_Init)
    TIM_ClearITPendingBit                    0x08004061   Thumb Code     6  stm32f10x_tim.o(i.TIM_ClearITPendingBit)
    TIM_Cmd                                  0x08004067   Thumb Code    24  stm32f10x_tim.o(i.TIM_Cmd)
    TIM_GetITStatus                          0x0800407f   Thumb Code    34  stm32f10x_tim.o(i.TIM_GetITStatus)
    TIM_ITConfig                             0x080040a1   Thumb Code    18  stm32f10x_tim.o(i.TIM_ITConfig)
    TIM_TimeBaseInit                         0x080040b5   Thumb Code   122  stm32f10x_tim.o(i.TIM_TimeBaseInit)
    USART1_IRQHandler                        0x08004159   Thumb Code    54  usart.o(i.USART1_IRQHandler)
    USART1_Init                              0x08004195   Thumb Code   174  usart.o(i.USART1_Init)
    USART2_IRQHandler                        0x0800424d   Thumb Code   134  esp8266_drive.o(i.USART2_IRQHandler)
    USART2_Init                              0x080042ed   Thumb Code   154  esp8266_drive.o(i.USART2_Init)
    USART_ClearFlag                          0x08004391   Thumb Code    18  stm32f10x_usart.o(i.USART_ClearFlag)
    USART_Cmd                                0x080043a3   Thumb Code    24  stm32f10x_usart.o(i.USART_Cmd)
    USART_GetFlagStatus                      0x080043bb   Thumb Code    26  stm32f10x_usart.o(i.USART_GetFlagStatus)
    USART_GetITStatus                        0x080043d5   Thumb Code    84  stm32f10x_usart.o(i.USART_GetITStatus)
    USART_ITConfig                           0x08004429   Thumb Code    74  stm32f10x_usart.o(i.USART_ITConfig)
    USART_Init                               0x08004475   Thumb Code   210  stm32f10x_usart.o(i.USART_Init)
    USART_ReceiveData                        0x0800454d   Thumb Code    10  stm32f10x_usart.o(i.USART_ReceiveData)
    USART_SendData                           0x08004557   Thumb Code     8  stm32f10x_usart.o(i.USART_SendData)
    USART_printf                             0x0800455f   Thumb Code   262  esp8266_public.o(i.USART_printf)
    UsageFault_Handler                       0x08004665   Thumb Code     4  stm32f10x_it.o(i.UsageFault_Handler)
    WordShow                                 0x08004669   Thumb Code   258  algo.o(i.WordShow)
    __0printf$8                              0x08004789   Thumb Code    22  printf8.o(i.__0printf$8)
    __1printf$8                              0x08004789   Thumb Code     0  printf8.o(i.__0printf$8)
    __2printf                                0x08004789   Thumb Code     0  printf8.o(i.__0printf$8)
    __0sprintf$8                             0x080047a9   Thumb Code    34  printf8.o(i.__0sprintf$8)
    __1sprintf$8                             0x080047a9   Thumb Code     0  printf8.o(i.__0sprintf$8)
    __2sprintf                               0x080047a9   Thumb Code     0  printf8.o(i.__0sprintf$8)
    __scatterload_copy                       0x080047d1   Thumb Code    14  handlers.o(i.__scatterload_copy)
    __scatterload_null                       0x080047df   Thumb Code     2  handlers.o(i.__scatterload_null)
    __scatterload_zeroinit                   0x080047e1   Thumb Code    14  handlers.o(i.__scatterload_zeroinit)
    bmp_encode                               0x08004c5d   Thumb Code   500  bmp.o(i.bmp_encode)
    camera_new_pathname                      0x08004e6d   Thumb Code    54  bmp.o(i.camera_new_pathname)
    camera_refresh                           0x08004ebd   Thumb Code   308  discern.o(i.camera_refresh)
    clust2sect                               0x0800510b   Thumb Code    26  ff.o(i.clust2sect)
    delay_ms                                 0x0800550d   Thumb Code    72  systick.o(i.delay_ms)
    delay_us                                 0x08005559   Thumb Code    72  systick.o(i.delay_us)
    disk_initialize                          0x080059c1   Thumb Code    56  diskio.o(i.disk_initialize)
    disk_ioctl                               0x080059fd   Thumb Code   144  diskio.o(i.disk_ioctl)
    disk_read                                0x08005a91   Thumb Code   124  diskio.o(i.disk_read)
    disk_status                              0x08005b0d   Thumb Code    30  diskio.o(i.disk_status)
    disk_write                               0x08005b2b   Thumb Code   120  diskio.o(i.disk_write)
    f_close                                  0x08005ba3   Thumb Code    32  ff.o(i.f_close)
    f_mkdir                                  0x08005bc3   Thumb Code   380  ff.o(i.f_mkdir)
    f_mount                                  0x08005d41   Thumb Code    86  ff.o(i.f_mount)
    f_open                                   0x08005d9d   Thumb Code   406  ff.o(i.f_open)
    f_read                                   0x08005f33   Thumb Code   432  ff.o(i.f_read)
    f_sync                                   0x080060e3   Thumb Code   176  ff.o(i.f_sync)
    f_write                                  0x08006193   Thumb Code   490  ff.o(i.f_write)
    ff_convert                               0x0800637d   Thumb Code   116  cc936.o(i.ff_convert)
    ff_memalloc                              0x080063f9   Thumb Code    14  diskio.o(i.ff_memalloc)
    ff_memfree                               0x08006407   Thumb Code    14  diskio.o(i.ff_memfree)
    ff_wtoupper                              0x08006415   Thumb Code    84  cc936.o(i.ff_wtoupper)
    fputc                                    0x08006915   Thumb Code    32  usart.o(i.fputc)
    get_fat                                  0x08006a05   Thumb Code   242  ff.o(i.get_fat)
    get_fattime                              0x08006af7   Thumb Code     4  diskio.o(i.get_fattime)
    main                                     0x08006bc9   Thumb Code   742  main.o(i.main)
    my_mem_free                              0x08006ffd   Thumb Code    96  malloc.o(i.my_mem_free)
    my_mem_init                              0x08007069   Thumb Code    54  malloc.o(i.my_mem_init)
    my_mem_malloc                            0x080070ad   Thumb Code   156  malloc.o(i.my_mem_malloc)
    my_mem_perused                           0x08007155   Thumb Code    54  malloc.o(i.my_mem_perused)
    my_mem_set                               0x08007195   Thumb Code    20  malloc.o(i.my_mem_set)
    myfree                                   0x080071a9   Thumb Code    30  malloc.o(i.myfree)
    mymalloc                                 0x080071cd   Thumb Code    34  malloc.o(i.mymalloc)
    pic_memalloc                             0x080071f5   Thumb Code    14  piclib.o(i.pic_memalloc)
    pic_memfree                              0x08007203   Thumb Code    14  piclib.o(i.pic_memfree)
    put_fat                                  0x08007211   Thumb Code   322  ff.o(i.put_fat)
    ascii_1608                               0x0800753a   Data        1520  tftlcd.o(.constdata)
    ascii_2412                               0x08007b2a   Data        3420  tftlcd.o(.constdata)
    CnChar32x29                              0x08008886   Data         472  tftlcd.o(.constdata)
    ov7670_init_reg_tbl                      0x08008a5e   Data         336  ov7670.o(.constdata)
    memtblsize                               0x08033ca8   Data           8  malloc.o(.constdata)
    memblksize                               0x08033cb0   Data           8  malloc.o(.constdata)
    memsize                                  0x08033cb8   Data           8  malloc.o(.constdata)
    Region$$Table$$Base                      0x08033da8   Number         0  anon$$obj.o(Region$$Table)
    Region$$Table$$Limit                     0x08033dc8   Number         0  anon$$obj.o(Region$$Table)
    FRONT_COLOR                              0x20000014   Data           2  tftlcd.o(.data)
    BACK_COLOR                               0x20000016   Data           2  tftlcd.o(.data)
    tftlcd_data                              0x20000018   Data           8  tftlcd.o(.data)
    ov_sta                                   0x20000021   Data           1  exti.o(.data)
    ov_frame                                 0x20000022   Data           1  time.o(.data)
    SD_Type                                  0x20000023   Data           1  sd.o(.data)
    EN25QXX_TYPE                             0x20000024   Data           2  flash.o(.data)
    TcpClosedFlag                            0x20000026   Data           1  esp8266_public.o(.data)
    FLASH_SECTOR_COUNT                       0x2000002c   Data           2  diskio.o(.data)
    file                                     0x20000030   Data           4  fatfs_app.o(.data)
    ftemp                                    0x20000034   Data           4  fatfs_app.o(.data)
    br                                       0x20000038   Data           4  fatfs_app.o(.data)
    bw                                       0x2000003c   Data           4  fatfs_app.o(.data)
    fatbuf                                   0x20000040   Data           4  fatfs_app.o(.data)
    malloc_cortol                            0x20000044   Data          28  malloc.o(.data)
    cur_status                               0x20000060   Data           1  value.o(.data)
    LED_flag                                 0x20000061   Data           1  value.o(.data)
    AA                                       0x20000062   Data           2  value.o(.data)
    BB                                       0x20000064   Data           2  value.o(.data)
    color                                    0x20000066   Data           2  value.o(.data)
    color_save                               0x20000068   Data           2  value.o(.data)
    R                                        0x2000006a   Data           1  value.o(.data)
    G                                        0x2000006b   Data           1  value.o(.data)
    B                                        0x2000006c   Data           1  value.o(.data)
    Max_ChangePoint_240                      0x2000006d   Data           1  value.o(.data)
    Min_ChangePoint_240                      0x2000006e   Data           1  value.o(.data)
    Max_bChangePoint                         0x2000006f   Data           1  value.o(.data)
    Min_bChangePoint                         0x20000070   Data           1  value.o(.data)
    a_Continue                               0x20000071   Data           1  value.o(.data)
    b_Continue                               0x20000072   Data           1  value.o(.data)
    flag_aMax                                0x20000073   Data           1  value.o(.data)
    Max_aChangePoint_reset                   0x20000074   Data           1  value.o(.data)
    Min_aChangePoint_reset                   0x20000075   Data           1  value.o(.data)
    Length_card                              0x20000076   Data           2  value.o(.data)
    Width_card                               0x20000078   Data           2  value.o(.data)
    Max_aChangePoint_reset_1                 0x2000007a   Data           1  value.o(.data)
    Min_aChangePoint_reset_1                 0x2000007b   Data           1  value.o(.data)
    flag_MaxMinCompare                       0x2000007c   Data           1  value.o(.data)
    V                                        0x20000080   Data           4  value.o(.data)
    S                                        0x20000084   Data           4  value.o(.data)
    H                                        0x20000088   Data           4  value.o(.data)
    Min_blue                                 0x2000008c   Data           2  value.o(.data)
    Max_blue                                 0x2000008e   Data           2  value.o(.data)
    k1                                       0x20000090   Data           2  value.o(.data)
    kk1                                      0x20000092   Data           2  value.o(.data)
    k2                                       0x20000094   Data           2  value.o(.data)
    kk2                                      0x20000096   Data           2  value.o(.data)
    k3                                       0x20000098   Data           2  value.o(.data)
    kk3                                      0x2000009a   Data           2  value.o(.data)
    k4                                       0x2000009c   Data           2  value.o(.data)
    kk4                                      0x2000009e   Data           2  value.o(.data)
    k5                                       0x200000a0   Data           2  value.o(.data)
    kk5                                      0x200000a2   Data           2  value.o(.data)
    k6                                       0x200000a4   Data           2  value.o(.data)
    kk6                                      0x200000a6   Data           2  value.o(.data)
    k7                                       0x200000a8   Data           2  value.o(.data)
    kk7                                      0x200000aa   Data           2  value.o(.data)
    k8                                       0x200000ac   Data           2  value.o(.data)
    kk8                                      0x200000ae   Data           2  value.o(.data)
    character_boundary_right_1               0x200000b0   Data           2  value.o(.data)
    character_boundary_left_1                0x200000b2   Data           2  value.o(.data)
    character_boundary_right_2               0x200000b4   Data           2  value.o(.data)
    character_boundary_left_2                0x200000b6   Data           2  value.o(.data)
    character_boundary_right_3               0x200000b8   Data           2  value.o(.data)
    character_boundary_left_3                0x200000ba   Data           2  value.o(.data)
    character_boundary_right_4               0x200000bc   Data           2  value.o(.data)
    character_boundary_left_4                0x200000be   Data           2  value.o(.data)
    character_boundary_right_5               0x200000c0   Data           2  value.o(.data)
    character_boundary_left_5                0x200000c2   Data           2  value.o(.data)
    character_boundary_right_6               0x200000c4   Data           2  value.o(.data)
    character_boundary_left_6                0x200000c6   Data           2  value.o(.data)
    character_boundary_right_7               0x200000c8   Data           2  value.o(.data)
    character_boundary_left_7                0x200000ca   Data           2  value.o(.data)
    character_boundary_right_8               0x200000cc   Data           2  value.o(.data)
    character_boundary_left_8                0x200000ce   Data           2  value.o(.data)
    Red_Vlaue                                0x200000d0   Data           1  value.o(.data)
    Green_Value                              0x200000d1   Data           1  value.o(.data)
    Blue_Value                               0x200000d2   Data           1  value.o(.data)
    table_char                               0x200000d3   Data          36  value.o(.data)
    table_char_char                          0x200000f7   Data          36  value.o(.data)
    table_cardMeasure                        0x2000011b   Data           7  value.o(.data)
    talble_0                                 0x20000122   Data         150  string.o(.data)
    table_yu                                 0x200001b8   Data          32  string.o(.data)
    table_min                                0x200001d8   Data          32  string.o(.data)
    table_lu                                 0x200001f8   Data          32  string.o(.data)
    table_zhe                                0x20000218   Data          32  string.o(.data)
    table_shan                               0x20000238   Data          32  string.o(.data)
    table_cuan                               0x20000258   Data          32  string.o(.data)
    Table                                    0x20000278   Data        6300  string.o(.data)
    __stdout                                 0x20001b14   Data           4  stdout.o(.data)
    EN25QXX_BUFFER                           0x20001b18   Data        4096  flash.o(.bss)
    ESP8266_Fram_Record_Struct               0x20002b18   Data        1026  esp8266_drive.o(.bss)
    fs                                       0x20002f28   Data          12  fatfs_app.o(.bss)
    fileinfo                                 0x20002f34   Data          32  fatfs_app.o(.bss)
    dir                                      0x20002f54   Data          36  fatfs_app.o(.bss)
    mem1base                                 0x20003080   Data       40960  malloc.o(.bss)
    mem1mapbase                              0x2000d080   Data        2560  malloc.o(.bss)
    TableChangePoint_240                     0x2000da80   Data         240  value.o(.bss)
    TableChangePoint_320                     0x2000db70   Data         320  value.o(.bss)
    table_picture                            0x2000dcb0   Data         150  value.o(.bss)
    table_card                               0x2000dd46   Data          40  value.o(.bss)
    __initial_sp                             0x2000e170   Data           0  startup_stm32f10x_hd.o(STACK)
    mem2base                                 0x68000000   Data       983040  malloc.o(.ARM.__AT_0x68000000)
    mem2mapbase                              0x680f0000   Data       61440  malloc.o(.ARM.__AT_0x680F0000)



==============================================================================

Memory Map of the image

  Image Entry point : 0x08000131

  Load Region LR_IROM1 (Base: 0x08000000, Size: 0x000358e0, Max: 0x00080000, ABSOLUTE, COMPRESSED[0x00034954])

    Execution Region ER_IROM1 (Base: 0x08000000, Size: 0x00033dc8, Max: 0x00080000, ABSOLUTE)

    Base Addr    Size         Type   Attr      Idx    E Section Name        Object

    0x08000000   0x00000130   Data   RO          268    RESET               startup_stm32f10x_hd.o
    0x08000130   0x00000000   Code   RO         4746  * .ARM.Collect$$$$00000000  mc_w.l(entry.o)
    0x08000130   0x00000004   Code   RO         5034    .ARM.Collect$$$$00000001  mc_w.l(entry2.o)
    0x08000134   0x00000004   Code   RO         5037    .ARM.Collect$$$$00000004  mc_w.l(entry5.o)
    0x08000138   0x00000000   Code   RO         5039    .ARM.Collect$$$$00000008  mc_w.l(entry7b.o)
    0x08000138   0x00000000   Code   RO         5041    .ARM.Collect$$$$0000000A  mc_w.l(entry8b.o)
    0x08000138   0x00000008   Code   RO         5042    .ARM.Collect$$$$0000000B  mc_w.l(entry9a.o)
    0x08000140   0x00000000   Code   RO         5044    .ARM.Collect$$$$0000000D  mc_w.l(entry10a.o)
    0x08000140   0x00000000   Code   RO         5046    .ARM.Collect$$$$0000000F  mc_w.l(entry11a.o)
    0x08000140   0x00000004   Code   RO         5035    .ARM.Collect$$$$00002712  mc_w.l(entry2.o)
    0x08000144   0x00000024   Code   RO          269    .text               startup_stm32f10x_hd.o
    0x08000168   0x00000024   Code   RO         4749    .text               mc_w.l(memseta.o)
    0x0800018c   0x00000024   Code   RO         4751    .text               mc_w.l(strstr.o)
    0x080001b0   0x000000b0   Code   RO         5018    .text               mf_w.l(fadd.o)
    0x08000260   0x00000064   Code   RO         5020    .text               mf_w.l(fmul.o)
    0x080002c4   0x0000007c   Code   RO         5022    .text               mf_w.l(fdiv.o)
    0x08000340   0x00000012   Code   RO         5024    .text               mf_w.l(fflti.o)
    0x08000352   0x0000000a   Code   RO         5026    .text               mf_w.l(ffltui.o)
    0x0800035c   0x00000014   Code   RO         5030    .text               mf_w.l(cfcmple.o)
    0x08000370   0x00000014   Code   RO         5032    .text               mf_w.l(cfrcmple.o)
    0x08000384   0x00000062   Code   RO         5051    .text               mc_w.l(uldiv.o)
    0x080003e6   0x00000000   Code   RO         5053    .text               mc_w.l(iusefp.o)
    0x080003e6   0x0000006e   Code   RO         5054    .text               mf_w.l(fepilogue.o)
    0x08000454   0x00000024   Code   RO         5066    .text               mc_w.l(init.o)
    0x08000478   0x0000001e   Code   RO         5068    .text               mc_w.l(llshl.o)
    0x08000496   0x00000020   Code   RO         5070    .text               mc_w.l(llushr.o)
    0x080004b6   0x0000005e   Code   RO         5084    .text               mc_w.l(__dclz77c.o)
    0x08000514   0x00000004   Code   RO          181    i.BusFault_Handler  stm32f10x_it.o
    0x08000518   0x000001b0   Code   RO         4607    i.CameraDiscern     discern.o
    0x080006c8   0x00000008   Code   RO         4608    i.CameraScan        discern.o
    0x080006d0   0x00000184   Code   RO         4659    i.ChangePoint_Analysis_320  algo.o
    0x08000854   0x00000124   Code   RO         4660    i.ChangePoint_Analysis_Blue  algo.o
    0x08000978   0x00000054   Code   RO         4662    i.ChangePoint_Show_320  algo.o
    0x080009cc   0x00000724   Code   RO         4663    i.CharacterRecognition  algo.o
    0x080010f0   0x00000002   Code   RO          182    i.DebugMon_Handler  stm32f10x_it.o
    0x080010f2   0x00000002   PAD
    0x080010f4   0x00000058   Code   RO         3304    i.EN25QXX_Erase_Sector  flash.o
    0x0800114c   0x000000b0   Code   RO         3305    i.EN25QXX_Init      flash.o
    0x080011fc   0x00000050   Code   RO         3307    i.EN25QXX_Read      flash.o
    0x0800124c   0x00000048   Code   RO         3308    i.EN25QXX_ReadID    flash.o
    0x08001294   0x0000002c   Code   RO         3309    i.EN25QXX_ReadSR    flash.o
    0x080012c0   0x00000012   Code   RO         3311    i.EN25QXX_Wait_Busy  flash.o
    0x080012d2   0x00000002   PAD
    0x080012d4   0x000000b8   Code   RO         3312    i.EN25QXX_Write     flash.o
    0x0800138c   0x00000020   Code   RO         3314    i.EN25QXX_Write_Enable  flash.o
    0x080013ac   0x00000046   Code   RO         3315    i.EN25QXX_Write_NoCheck  flash.o
    0x080013f2   0x00000002   PAD
    0x080013f4   0x00000054   Code   RO         3316    i.EN25QXX_Write_Page  flash.o
    0x08001448   0x00000044   Code   RO         3406    i.ESP8266_AT_Test   esp8266_drive.o
    0x0800148c   0x000000e0   Code   RO         3515    i.ESP8266_ConnectToServer  esp8266_public.o
    0x0800156c   0x00000040   Code   RO         3407    i.ESP8266_Enable_MultipleId  esp8266_drive.o
    0x080015ac   0x00000058   Code   RO         3410    i.ESP8266_Init      esp8266_drive.o
    0x08001604   0x00000040   Code   RO         3411    i.ESP8266_JoinAP    esp8266_drive.o
    0x08001644   0x00000078   Code   RO         3413    i.ESP8266_Net_Mode_Choose  esp8266_drive.o
    0x080016bc   0x00000020   Code   RO         3415    i.ESP8266_Rst       esp8266_drive.o
    0x080016dc   0x00000074   Code   RO         3516    i.ESP8266_STA_LinkAP  esp8266_public.o
    0x08001750   0x000000a0   Code   RO         3416    i.ESP8266_SendString  esp8266_drive.o
    0x080017f0   0x000000b8   Code   RO         3417    i.ESP8266_Send_AT_Cmd  esp8266_drive.o
    0x080018a8   0x0000004c   Code   RO         3093    i.EXTI7_Init        exti.o
    0x080018f4   0x00000044   Code   RO         3094    i.EXTI9_5_IRQHandler  exti.o
    0x08001938   0x0000000c   Code   RO          625    i.EXTI_ClearITPendingBit  stm32f10x_exti.o
    0x08001944   0x00000028   Code   RO          629    i.EXTI_GetITStatus  stm32f10x_exti.o
    0x0800196c   0x00000094   Code   RO          630    i.EXTI_Init         stm32f10x_exti.o
    0x08001a00   0x00000084   Code   RO         4048    i.FATFS_Init        fatfs_app.o
    0x08001a84   0x00000034   Code   RO         2268    i.FSMC_NORSRAMCmd   stm32f10x_fsmc.o
    0x08001ab8   0x000000e6   Code   RO         2270    i.FSMC_NORSRAMInit  stm32f10x_fsmc.o
    0x08001b9e   0x00000002   PAD
    0x08001ba0   0x00000040   Code   RO          277    i.GPIO_EXTILineConfig  stm32f10x_gpio.o
    0x08001be0   0x00000116   Code   RO          280    i.GPIO_Init         stm32f10x_gpio.o
    0x08001cf6   0x00000004   Code   RO          287    i.GPIO_ResetBits    stm32f10x_gpio.o
    0x08001cfa   0x00000004   Code   RO          288    i.GPIO_SetBits      stm32f10x_gpio.o
    0x08001cfe   0x00000004   Code   RO          183    i.HardFault_Handler  stm32f10x_it.o
    0x08001d02   0x00000002   PAD
    0x08001d04   0x00000048   Code   RO         2945    i.KEY_Init          key.o
    0x08001d4c   0x0000009c   Code   RO         2946    i.KEY_Scan          key.o
    0x08001de8   0x00000048   Code   RO         2754    i.LCD_Clear         tftlcd.o
    0x08001e30   0x00000064   Code   RO         2755    i.LCD_Display_Dir   tftlcd.o
    0x08001e94   0x0000001c   Code   RO         2756    i.LCD_DrawFRONT_COLOR  tftlcd.o
    0x08001eb0   0x00000020   Code   RO         2759    i.LCD_DrawPoint     tftlcd.o
    0x08001ed0   0x0000005c   Code   RO         2763    i.LCD_Fill          tftlcd.o
    0x08001f2c   0x00000016   Code   RO         2764    i.LCD_Pow           tftlcd.o
    0x08001f42   0x00000002   PAD
    0x08001f44   0x0000000c   Code   RO         2766    i.LCD_ReadData      tftlcd.o
    0x08001f50   0x00000054   Code   RO         2767    i.LCD_ReadPoint     tftlcd.o
    0x08001fa4   0x000000c4   Code   RO         2768    i.LCD_Set_Window    tftlcd.o
    0x08002068   0x00000110   Code   RO         2769    i.LCD_ShowChar      tftlcd.o
    0x08002178   0x00000094   Code   RO         2771    i.LCD_ShowNum       tftlcd.o
    0x0800220c   0x00000066   Code   RO         2773    i.LCD_ShowString    tftlcd.o
    0x08002272   0x00000002   PAD
    0x08002274   0x0000000c   Code   RO         2775    i.LCD_WriteCmd      tftlcd.o
    0x08002280   0x0000000c   Code   RO         2777    i.LCD_WriteData     tftlcd.o
    0x0800228c   0x0000000c   Code   RO         2778    i.LCD_WriteData_Color  tftlcd.o
    0x08002298   0x00000034   Code   RO         2739    i.LED_Init          led.o
    0x080022cc   0x00000004   Code   RO          184    i.MemManage_Handler  stm32f10x_it.o
    0x080022d0   0x00000130   Code   RO         4665    i.MoShiShiBie_All   algo.o
    0x08002400   0x00000002   Code   RO          185    i.NMI_Handler       stm32f10x_it.o
    0x08002402   0x00000002   PAD
    0x08002404   0x00000070   Code   RO          588    i.NVIC_Init         misc.o
    0x08002474   0x00000014   Code   RO          589    i.NVIC_PriorityGroupConfig  misc.o
    0x08002488   0x0000037c   Code   RO         4666    i.Normalized        algo.o
    0x08002804   0x00000032   Code   RO         2967    i.OV7670_Brightness  ov7670.o
    0x08002836   0x0000007a   Code   RO         2968    i.OV7670_Color_Saturation  ov7670.o
    0x080028b0   0x00000032   Code   RO         2969    i.OV7670_Contrast   ov7670.o
    0x080028e2   0x00000002   PAD
    0x080028e4   0x00000100   Code   RO         2970    i.OV7670_Init       ov7670.o
    0x080029e4   0x0000005c   Code   RO         2971    i.OV7670_Light_Mode  ov7670.o
    0x08002a40   0x0000006a   Code   RO         2972    i.OV7670_Special_Effects  ov7670.o
    0x08002aaa   0x0000008a   Code   RO         2973    i.OV7670_Window_Set  ov7670.o
    0x08002b34   0x00000002   Code   RO          186    i.PendSV_Handler    stm32f10x_it.o
    0x08002b36   0x00000002   PAD
    0x08002b38   0x00000098   Code   RO         4667    i.Picture_String    algo.o
    0x08002bd0   0x0000010c   Code   RO         3517    i.PostToWeb         esp8266_public.o
    0x08002cdc   0x00000020   Code   RO          389    i.RCC_AHBPeriphClockCmd  stm32f10x_rcc.o
    0x08002cfc   0x00000020   Code   RO          390    i.RCC_APB1PeriphClockCmd  stm32f10x_rcc.o
    0x08002d1c   0x00000020   Code   RO          392    i.RCC_APB2PeriphClockCmd  stm32f10x_rcc.o
    0x08002d3c   0x000000d4   Code   RO          400    i.RCC_GetClocksFreq  stm32f10x_rcc.o
    0x08002e10   0x000001c4   Code   RO         4668    i.RGB_HSV           algo.o
    0x08002fd4   0x00000050   Code   RO         3027    i.SCCB_Init         sccb.o
    0x08003024   0x00000040   Code   RO         3028    i.SCCB_No_Ack       sccb.o
    0x08003064   0x0000004c   Code   RO         3029    i.SCCB_RD_Byte      sccb.o
    0x080030b0   0x0000004e   Code   RO         3030    i.SCCB_RD_Reg       sccb.o
    0x080030fe   0x00000002   PAD
    0x08003100   0x0000001c   Code   RO         3031    i.SCCB_SDA_IN       sccb.o
    0x0800311c   0x00000024   Code   RO         3032    i.SCCB_SDA_OUT      sccb.o
    0x08003140   0x00000034   Code   RO         3033    i.SCCB_Start        sccb.o
    0x08003174   0x00000034   Code   RO         3034    i.SCCB_Stop         sccb.o
    0x080031a8   0x00000084   Code   RO         3035    i.SCCB_WR_Byte      sccb.o
    0x0800322c   0x0000003e   Code   RO         3036    i.SCCB_WR_Reg       sccb.o
    0x0800326a   0x00000002   PAD
    0x0800326c   0x00000014   Code   RO         3141    i.SD_DisSelect      sd.o
    0x08003280   0x0000002a   Code   RO         3143    i.SD_GetCSD         sd.o
    0x080032aa   0x00000026   Code   RO         3144    i.SD_GetResponse    sd.o
    0x080032d0   0x00000076   Code   RO         3145    i.SD_GetSectorCount  sd.o
    0x08003346   0x00000002   PAD
    0x08003348   0x00000188   Code   RO         3146    i.SD_Init           sd.o
    0x080034d0   0x00000074   Code   RO         3147    i.SD_ReadDisk       sd.o
    0x08003544   0x00000038   Code   RO         3148    i.SD_RecvData       sd.o
    0x0800357c   0x00000084   Code   RO         3149    i.SD_SPI_Init       sd.o
    0x08003600   0x0000000c   Code   RO         3150    i.SD_SPI_ReadWriteByte  sd.o
    0x0800360c   0x0000000a   Code   RO         3151    i.SD_SPI_SpeedHigh  sd.o
    0x08003616   0x0000000a   Code   RO         3152    i.SD_SPI_SpeedLow   sd.o
    0x08003620   0x00000020   Code   RO         3153    i.SD_Select         sd.o
    0x08003640   0x00000052   Code   RO         3154    i.SD_SendBlock      sd.o
    0x08003692   0x00000078   Code   RO         3155    i.SD_SendCmd        sd.o
    0x0800370a   0x00000022   Code   RO         3156    i.SD_WaitReady      sd.o
    0x0800372c   0x00000090   Code   RO         3157    i.SD_WriteDisk      sd.o
    0x080037bc   0x0000008c   Code   RO         3261    i.SPI2_Init         spi.o
    0x08003848   0x00000038   Code   RO         3262    i.SPI2_ReadWriteByte  spi.o
    0x08003880   0x00000028   Code   RO         3263    i.SPI2_SetSpeed     spi.o
    0x080038a8   0x00000018   Code   RO         2382    i.SPI_Cmd           stm32f10x_spi.o
    0x080038c0   0x00000012   Code   RO         2390    i.SPI_I2S_GetFlagStatus  stm32f10x_spi.o
    0x080038d2   0x00000006   Code   RO         2393    i.SPI_I2S_ReceiveData  stm32f10x_spi.o
    0x080038d8   0x00000004   Code   RO         2394    i.SPI_I2S_SendData  stm32f10x_spi.o
    0x080038dc   0x0000003c   Code   RO         2395    i.SPI_Init          stm32f10x_spi.o
    0x08003918   0x00000002   Code   RO          187    i.SVC_Handler       stm32f10x_it.o
    0x0800391a   0x00000002   PAD
    0x0800391c   0x000000f0   Code   RO         4669    i.SegmentationChar  algo.o
    0x08003a0c   0x00000008   Code   RO         2695    i.SetSysClock       system_stm32f10x.o
    0x08003a14   0x000000e0   Code   RO         2696    i.SetSysClockTo72   system_stm32f10x.o
    0x08003af4   0x00000028   Code   RO          592    i.SysTick_CLKSourceConfig  misc.o
    0x08003b1c   0x00000002   Code   RO          188    i.SysTick_Handler   stm32f10x_it.o
    0x08003b1e   0x00000002   PAD
    0x08003b20   0x0000003c   Code   RO         3580    i.SysTick_Init      systick.o
    0x08003b5c   0x00000060   Code   RO         2698    i.SystemInit        system_stm32f10x.o
    0x08003bbc   0x0000007e   Code   RO         2779    i.TFTLCD_FSMC_Init  tftlcd.o
    0x08003c3a   0x00000002   PAD
    0x08003c3c   0x00000070   Code   RO         2780    i.TFTLCD_GPIO_Init  tftlcd.o
    0x08003cac   0x000002f8   Code   RO         2781    i.TFTLCD_Init       tftlcd.o
    0x08003fa4   0x00000054   Code   RO         3117    i.TIM4_IRQHandler   time.o
    0x08003ff8   0x00000068   Code   RO         3118    i.TIM4_Init         time.o
    0x08004060   0x00000006   Code   RO          689    i.TIM_ClearITPendingBit  stm32f10x_tim.o
    0x08004066   0x00000018   Code   RO          694    i.TIM_Cmd           stm32f10x_tim.o
    0x0800407e   0x00000022   Code   RO          715    i.TIM_GetITStatus   stm32f10x_tim.o
    0x080040a0   0x00000012   Code   RO          719    i.TIM_ITConfig      stm32f10x_tim.o
    0x080040b2   0x00000002   PAD
    0x080040b4   0x000000a4   Code   RO          765    i.TIM_TimeBaseInit  stm32f10x_tim.o
    0x08004158   0x0000003c   Code   RO         3609    i.USART1_IRQHandler  usart.o
    0x08004194   0x000000b8   Code   RO         3610    i.USART1_Init       usart.o
    0x0800424c   0x000000a0   Code   RO         3419    i.USART2_IRQHandler  esp8266_drive.o
    0x080042ec   0x000000a4   Code   RO         3420    i.USART2_Init       esp8266_drive.o
    0x08004390   0x00000012   Code   RO         1226    i.USART_ClearFlag   stm32f10x_usart.o
    0x080043a2   0x00000018   Code   RO         1230    i.USART_Cmd         stm32f10x_usart.o
    0x080043ba   0x0000001a   Code   RO         1233    i.USART_GetFlagStatus  stm32f10x_usart.o
    0x080043d4   0x00000054   Code   RO         1234    i.USART_GetITStatus  stm32f10x_usart.o
    0x08004428   0x0000004a   Code   RO         1236    i.USART_ITConfig    stm32f10x_usart.o
    0x08004472   0x00000002   PAD
    0x08004474   0x000000d8   Code   RO         1237    i.USART_Init        stm32f10x_usart.o
    0x0800454c   0x0000000a   Code   RO         1244    i.USART_ReceiveData  stm32f10x_usart.o
    0x08004556   0x00000008   Code   RO         1247    i.USART_SendData    stm32f10x_usart.o
    0x0800455e   0x00000106   Code   RO         3518    i.USART_printf      esp8266_public.o
    0x08004664   0x00000004   Code   RO          189    i.UsageFault_Handler  stm32f10x_it.o
    0x08004668   0x00000120   Code   RO         4671    i.WordShow          algo.o
    0x08004788   0x00000020   Code   RO         4964    i.__0printf$8       mc_w.l(printf8.o)
    0x080047a8   0x00000028   Code   RO         4966    i.__0sprintf$8      mc_w.l(printf8.o)
    0x080047d0   0x0000000e   Code   RO         5078    i.__scatterload_copy  mc_w.l(handlers.o)
    0x080047de   0x00000002   Code   RO         5079    i.__scatterload_null  mc_w.l(handlers.o)
    0x080047e0   0x0000000e   Code   RO         5080    i.__scatterload_zeroinit  mc_w.l(handlers.o)
    0x080047ee   0x00000002   PAD
    0x080047f0   0x00000410   Code   RO         4971    i._printf_core      mc_w.l(printf8.o)
    0x08004c00   0x00000024   Code   RO         4972    i._printf_post_padding  mc_w.l(printf8.o)
    0x08004c24   0x0000002e   Code   RO         4973    i._printf_pre_padding  mc_w.l(printf8.o)
    0x08004c52   0x0000000a   Code   RO         4975    i._sputc            mc_w.l(printf8.o)
    0x08004c5c   0x00000210   Code   RO         4128    i.bmp_encode        bmp.o
    0x08004e6c   0x00000050   Code   RO         4129    i.camera_new_pathname  bmp.o
    0x08004ebc   0x00000178   Code   RO         4609    i.camera_refresh    discern.o
    0x08005034   0x00000090   Code   RO         3703    i.check_fs          ff.o
    0x080050c4   0x00000014   Code   RO         3704    i.chk_chr           ff.o
    0x080050d8   0x00000032   Code   RO         3705    i.clmt_clust        ff.o
    0x0800510a   0x0000001a   Code   RO         3706    i.clust2sect        ff.o
    0x08005124   0x000000a0   Code   RO         3707    i.cmp_lfn           ff.o
    0x080051c4   0x000000d6   Code   RO         3708    i.create_chain      ff.o
    0x0800529a   0x00000002   PAD
    0x0800529c   0x00000270   Code   RO         3709    i.create_name       ff.o
    0x0800550c   0x0000004c   Code   RO         3581    i.delay_ms          systick.o
    0x08005558   0x0000004c   Code   RO         3582    i.delay_us          systick.o
    0x080055a4   0x0000005c   Code   RO         3710    i.dir_alloc         ff.o
    0x08005600   0x000000ea   Code   RO         3711    i.dir_find          ff.o
    0x080056ea   0x0000010e   Code   RO         3712    i.dir_next          ff.o
    0x080057f8   0x0000012a   Code   RO         3714    i.dir_register      ff.o
    0x08005922   0x0000009e   Code   RO         3716    i.dir_sdi           ff.o
    0x080059c0   0x0000003c   Code   RO         3636    i.disk_initialize   diskio.o
    0x080059fc   0x00000094   Code   RO         3637    i.disk_ioctl        diskio.o
    0x08005a90   0x0000007c   Code   RO         3638    i.disk_read         diskio.o
    0x08005b0c   0x0000001e   Code   RO         3639    i.disk_status       diskio.o
    0x08005b2a   0x00000078   Code   RO         3640    i.disk_write        diskio.o
    0x08005ba2   0x00000020   Code   RO         3718    i.f_close           ff.o
    0x08005bc2   0x0000017c   Code   RO         3724    i.f_mkdir           ff.o
    0x08005d3e   0x00000002   PAD
    0x08005d40   0x0000005c   Code   RO         3726    i.f_mount           ff.o
    0x08005d9c   0x00000196   Code   RO         3727    i.f_open            ff.o
    0x08005f32   0x000001b0   Code   RO         3732    i.f_read            ff.o
    0x080060e2   0x000000b0   Code   RO         3737    i.f_sync            ff.o
    0x08006192   0x000001ea   Code   RO         3741    i.f_write           ff.o
    0x0800637c   0x0000007c   Code   RO         4099    i.ff_convert        cc936.o
    0x080063f8   0x0000000e   Code   RO         3641    i.ff_memalloc       diskio.o
    0x08006406   0x0000000e   Code   RO         3642    i.ff_memfree        diskio.o
    0x08006414   0x0000005c   Code   RO         4100    i.ff_wtoupper       cc936.o
    0x08006470   0x00000394   Code   RO         3742    i.find_volume       ff.o
    0x08006804   0x00000080   Code   RO         3743    i.fit_lfn           ff.o
    0x08006884   0x00000090   Code   RO         3744    i.follow_path       ff.o
    0x08006914   0x00000024   Code   RO         3611    i.fputc             usart.o
    0x08006938   0x000000cc   Code   RO         3745    i.gen_numname       ff.o
    0x08006a04   0x000000f2   Code   RO         3746    i.get_fat           ff.o
    0x08006af6   0x00000004   Code   RO         3643    i.get_fattime       diskio.o
    0x08006afa   0x0000004a   Code   RO         3748    i.get_ldnumber      ff.o
    0x08006b44   0x00000062   Code   RO         3519    i.itoa              esp8266_public.o
    0x08006ba6   0x00000020   Code   RO         3749    i.ld_clust          ff.o
    0x08006bc6   0x00000002   PAD
    0x08006bc8   0x000003ac   Code   RO            1    i.main              main.o
    0x08006f74   0x00000026   Code   RO         3750    i.mem_cmp           ff.o
    0x08006f9a   0x0000001a   Code   RO         3751    i.mem_cpy           ff.o
    0x08006fb4   0x00000014   Code   RO         3752    i.mem_set           ff.o
    0x08006fc8   0x00000034   Code   RO         3753    i.move_window       ff.o
    0x08006ffc   0x0000006c   Code   RO         4474    i.my_mem_free       malloc.o
    0x08007068   0x00000044   Code   RO         4475    i.my_mem_init       malloc.o
    0x080070ac   0x000000a8   Code   RO         4476    i.my_mem_malloc     malloc.o
    0x08007154   0x00000040   Code   RO         4477    i.my_mem_perused    malloc.o
    0x08007194   0x00000014   Code   RO         4478    i.my_mem_set        malloc.o
    0x080071a8   0x00000024   Code   RO         4479    i.myfree            malloc.o
    0x080071cc   0x00000028   Code   RO         4480    i.mymalloc          malloc.o
    0x080071f4   0x0000000e   Code   RO         4291    i.pic_memalloc      piclib.o
    0x08007202   0x0000000e   Code   RO         4292    i.pic_memfree       piclib.o
    0x08007210   0x00000142   Code   RO         3755    i.put_fat           ff.o
    0x08007352   0x0000006c   Code   RO         3757    i.remove_chain      ff.o
    0x080073be   0x00000010   Code   RO         3758    i.st_clust          ff.o
    0x080073ce   0x00000020   Code   RO         3759    i.sum_sfn           ff.o
    0x080073ee   0x000000c8   Code   RO         3760    i.sync_fs           ff.o
    0x080074b6   0x00000052   Code   RO         3761    i.sync_window       ff.o
    0x08007508   0x00000032   Code   RO         3762    i.validate          ff.o
    0x0800753a   0x00001524   Data   RO         2782    .constdata          tftlcd.o
    0x08008a5e   0x00000150   Data   RO         2974    .constdata          ov7670.o
    0x08008bae   0x0000003a   Data   RO         3764    .constdata          ff.o
    0x08008be8   0x0002b0c0   Data   RO         4101    .constdata          cc936.o
    0x08033ca8   0x00000018   Data   RO         4485    .constdata          malloc.o
    0x08033cc0   0x000000e5   Data   RO         3520    .conststring        esp8266_public.o
    0x08033da5   0x00000003   PAD
    0x08033da8   0x00000020   Data   RO         5076    Region$$Table       anon$$obj.o


    Execution Region RW_IRAM1 (Base: 0x20000000, Size: 0x0000e170, Max: 0x00010000, ABSOLUTE, COMPRESSED[0x00000b8c])

    Base Addr    Size         Type   Attr      Idx    E Section Name        Object

    0x20000000   0x00000014   Data   RW          420    .data               stm32f10x_rcc.o
    0x20000014   0x0000000c   Data   RW         2783    .data               tftlcd.o
    0x20000020   0x00000001   Data   RW         2947    .data               key.o
    0x20000021   0x00000001   Data   RW         3095    .data               exti.o
    0x20000022   0x00000001   Data   RW         3119    .data               time.o
    0x20000023   0x00000001   Data   RW         3158    .data               sd.o
    0x20000024   0x00000002   Data   RW         3319    .data               flash.o
    0x20000026   0x00000001   Data   RW         3521    .data               esp8266_public.o
    0x20000027   0x00000001   PAD
    0x20000028   0x00000004   Data   RW         3583    .data               systick.o
    0x2000002c   0x00000002   Data   RW         3644    .data               diskio.o
    0x2000002e   0x00000002   Data   RW         3765    .data               ff.o
    0x20000030   0x00000014   Data   RW         4055    .data               fatfs_app.o
    0x20000044   0x0000001c   Data   RW         4486    .data               malloc.o
    0x20000060   0x000000c2   Data   RW         4595    .data               value.o
    0x20000122   0x000019f2   Data   RW         4646    .data               string.o
    0x20001b14   0x00000004   Data   RW         5048    .data               mc_w.l(stdout.o)
    0x20001b18   0x00001000   Zero   RW         3318    .bss                flash.o
    0x20002b18   0x00000402   Zero   RW         3421    .bss                esp8266_drive.o
    0x20002f1a   0x00000002   PAD
    0x20002f1c   0x0000000c   Zero   RW         3763    .bss                ff.o
    0x20002f28   0x00000150   Zero   RW         4052    .bss                fatfs_app.o
    0x20003078   0x00000008   PAD
    0x20003080   0x0000aa00   Zero   RW         4484    .bss                malloc.o
    0x2000da80   0x000002ee   Zero   RW         4594    .bss                value.o
    0x2000dd6e   0x00000002   PAD
    0x2000dd70   0x00000400   Zero   RW          266    STACK               startup_stm32f10x_hd.o



  Load Region LR$$.ARM.__AT_0x68000000 (Base: 0x68000000, Size: 0x00000000, Max: 0x000f0000, ABSOLUTE)

    Execution Region ER$$.ARM.__AT_0x68000000 (Base: 0x68000000, Size: 0x000f0000, Max: 0x000f0000, ABSOLUTE, UNINIT)

    Base Addr    Size         Type   Attr      Idx    E Section Name        Object

    0x68000000   0x000f0000   Zero   RW         4482    .ARM.__AT_0x68000000  malloc.o



  Load Region LR$$.ARM.__AT_0x680F0000 (Base: 0x680f0000, Size: 0x00000000, Max: 0x0000f000, ABSOLUTE)

    Execution Region ER$$.ARM.__AT_0x680F0000 (Base: 0x680f0000, Size: 0x0000f000, Max: 0x0000f000, ABSOLUTE, UNINIT)

    Base Addr    Size         Type   Attr      Idx    E Section Name        Object

    0x680f0000   0x0000f000   Zero   RW         4483    .ARM.__AT_0x680F0000  malloc.o


==============================================================================

Image component sizes


      Code (inc. data)   RO Data    RW Data    ZI Data      Debug   Object Name

      4920        510          0          0          0       9201   algo.o
       608         54          0          0          0       3351   bmp.o
       216         16     176320          0          0       2587   cc936.o
       816         82          0          0          0       1798   discern.o
       514          8          0          2          0       6908   diskio.o
      1104        240          0          0       1026       8488   esp8266_drive.o
       968        256        229          1          0       5186   esp8266_public.o
       144         18          0          1          0       1263   exti.o
       132         18          0         20        336       5591   fatfs_app.o
      6984         64         58          2         12      36497   ff.o
       848         78          0          2       4096       6629   flash.o
       228         22          0          1          0       1154   key.o
        52          6          0          0          0        487   led.o
       940        198          0          0          0     276291   main.o
       504         60         24         28    1088000       6054   malloc.o
       172         22          0          0          0       2281   misc.o
       814         32        336          0          0       5093   ov7670.o
        28          0          0          0          0       1021   piclib.o
       660         60          0          0          0       5346   sccb.o
      1358         42          0          1          0      10224   sd.o
       236         20          0          0          0       1653   spi.o
        36          8        304          0       1024        848   startup_stm32f10x_hd.o
       200         18          0          0          0       2316   stm32f10x_exti.o
       282          6          0          0          0       1985   stm32f10x_fsmc.o
       350          4          0          0          0       3906   stm32f10x_gpio.o
        26          0          0          0          0       3926   stm32f10x_it.o
       308         38          0         20          0       5306   stm32f10x_rcc.o
       112          0          0          0          0       4130   stm32f10x_spi.o
       246         42          0          0          0       3866   stm32f10x_tim.o
       460          6          0          0          0       7135   stm32f10x_usart.o
         0          0          0       6642          0        877   string.o
       328         28          0          0          0       1993   system_stm32f10x.o
       212         16          0          4          0       1745   systick.o
      2194        102       5412         12          0      13855   tftlcd.o
       188         36          0          1          0       1345   time.o
       280         20          0          0          0       1730   usart.o
         0          0          0        194        750       3672   value.o

    ----------------------------------------------------------------------
     27510       2130     182718       6932    1095256     455738   Object Totals
         0          0         32          0          0          0   (incl. Generated)
        42          0          3          1         12          0   (incl. Padding)

    ----------------------------------------------------------------------

      Code (inc. data)   RO Data    RW Data    ZI Data      Debug   Library Member Name

        94          0          0          0          0          0   __dclz77c.o
         0          0          0          0          0          0   entry.o
         0          0          0          0          0          0   entry10a.o
         0          0          0          0          0          0   entry11a.o
         8          4          0          0          0          0   entry2.o
         4          0          0          0          0          0   entry5.o
         0          0          0          0          0          0   entry7b.o
         0          0          0          0          0          0   entry8b.o
         8          4          0          0          0          0   entry9a.o
        30          0          0          0          0          0   handlers.o
        36          8          0          0          0         68   init.o
         0          0          0          0          0          0   iusefp.o
        30          0          0          0          0         68   llshl.o
        32          0          0          0          0         68   llushr.o
        36          0          0          0          0        108   memseta.o
      1204         60          0          0          0        504   printf8.o
         0          0          0          4          0          0   stdout.o
        36          0          0          0          0         80   strstr.o
        98          0          0          0          0         92   uldiv.o
        20          0          0          0          0         68   cfcmple.o
        20          0          0          0          0         68   cfrcmple.o
       176          0          0          0          0        140   fadd.o
       124          0          0          0          0         88   fdiv.o
       110          0          0          0          0        168   fepilogue.o
        18          0          0          0          0         68   fflti.o
        10          0          0          0          0         68   ffltui.o
       100          0          0          0          0         76   fmul.o

    ----------------------------------------------------------------------
      2196         76          0          4          0       1732   Library Totals
         2          0          0          0          0          0   (incl. Padding)

    ----------------------------------------------------------------------

      Code (inc. data)   RO Data    RW Data    ZI Data      Debug   Library Name

      1616         76          0          4          0        988   mc_w.l
       578          0          0          0          0        744   mf_w.l

    ----------------------------------------------------------------------
      2196         76          0          4          0       1732   Library Totals

    ----------------------------------------------------------------------

==============================================================================


      Code (inc. data)   RO Data    RW Data    ZI Data      Debug   

     29706       2206     182718       6936    1095256     446054   Grand Totals
     29706       2206     182718       2956    1095256     446054   ELF Image Totals (compressed)
     29706       2206     182718       2956          0          0   ROM Totals

==============================================================================

    Total RO  Size (Code + RO Data)               212424 ( 207.45kB)
    Total RW  Size (RW Data + ZI Data)           1102192 (1076.36kB)
    Total ROM Size (Code + RO Data + RW Data)     215380 ( 210.33kB)

==============================================================================

